EXPORTS 
	??_R0?AV?$_Ref_count_obj2@VConnectionPool@redis@sw@@@std@@@8 	 DATA
	??_R0?AV?$_Ref_count_obj2@VGuardedConnection@redis@sw@@@std@@@8 	 DATA
	??_R0?AVAskError@redis@sw@@@8 	 DATA
	??_R0?AVClosedError@redis@sw@@@8 	 DATA
	??_R0?AVError@redis@sw@@@8 	 DATA
	??_R0?AVIoError@redis@sw@@@8 	 DATA
	??_R0?AVMovedError@redis@sw@@@8 	 DATA
	??_R0?AVOomError@redis@sw@@@8 	 DATA
	??_R0?AVParseError@redis@sw@@@8 	 DATA
	??_R0?AVProtoError@redis@sw@@@8 	 DATA
	??_R0?AVRedirectionError@redis@sw@@@8 	 DATA
	??_R0?AVReplyError@redis@sw@@@8 	 DATA
	??_R0?AVSlotUncoveredError@redis@sw@@@8 	 DATA
	??_R0?AVStopIterError@redis@sw@@@8 	 DATA
	??_R0?AVTimeoutError@redis@sw@@@8 	 DATA
	??_R0?AVWatchError@redis@sw@@@8 	 DATA
	??_R0?AV_Generic_error_category@std@@@8 	 DATA
	??_R0?AV_Ref_count_base@std@@@8 	 DATA
	??_R0?AV_System_error@std@@@8 	 DATA
	??_R0?AVbad_alloc@std@@@8 	 DATA
	??_R0?AVbad_array_new_length@std@@@8 	 DATA
	??_R0?AVbad_weak_ptr@std@@@8 	 DATA
	??_R0?AVerror_category@std@@@8 	 DATA
	??_R0?AVexception@std@@@8 	 DATA
	??_R0?AVinvalid_argument@std@@@8 	 DATA
	??_R0?AVout_of_range@std@@@8 	 DATA
	??_R0?AVruntime_error@std@@@8 	 DATA
	??_R0?AVsystem_error@std@@@8 	 DATA
	?_OptionsStorage@?1??__local_stdio_printf_options@@9@4_KA 	 DATA
	?_Static@?1???$_Immortalize_memcpy_image@V_Generic_error_category@std@@@std@@YAAEBV_Generic_error_category@1@XZ@4U?$_Constexpr_immortalize_impl@V_Generic_error_category@std@@@1@A 	 DATA
	??$?0$$V@?$QueuedRedis@VPipelineImpl@redis@sw@@@redis@sw@@AEAA@AEBV?$shared_ptr@VConnectionPool@redis@sw@@@std@@_N@Z
	??$?0AEA_N@?$QueuedRedis@VTransactionImpl@redis@sw@@@redis@sw@@AEAA@AEBV?$shared_ptr@VConnectionPool@redis@sw@@@std@@_NAEA_N@Z
	??$?0PEBV?$shared_ptr@VRedis@redis@sw@@@std@@$0A@@?$vector@V?$shared_ptr@VRedis@redis@sw@@@std@@V?$allocator@V?$shared_ptr@VRedis@redis@sw@@@std@@@2@@std@@QEAA@PEBV?$shared_ptr@VRedis@redis@sw@@@1@0AEBV?$allocator@V?$shared_ptr@VRedis@redis@sw@@@std@@@1@@Z
	??$?6AEAN$0A@@CmdArgs@redis@sw@@QEAAAEAV012@AEAN@Z
	??$?6AEA_J$0A@@CmdArgs@redis@sw@@QEAAAEAV012@AEA_J@Z
	??$?6AEBN$0A@@CmdArgs@redis@sw@@QEAAAEAV012@AEBN@Z
	??$?6PEBV?$basic_string_view@DU?$char_traits@D@std@@@std@@@CmdArgs@redis@sw@@QEAAAEAV012@AEBU?$pair@PEBV?$basic_string_view@DU?$char_traits@D@std@@@std@@PEBV12@@std@@@Z
	??$?8$$A6AXV?$basic_string@DU?$char_traits@D@std@@V?$allocator@D@2@@std@@00@Z@std@@YA_NAEBV?$function@$$A6AXV?$basic_string@DU?$char_traits@D@std@@V?$allocator@D@2@@std@@00@Z@0@$$T@Z
	??$?8$$A6AXV?$basic_string@DU?$char_traits@D@std@@V?$allocator@D@2@@std@@0@Z@std@@YA_NAEBV?$function@$$A6AXV?$basic_string@DU?$char_traits@D@std@@V?$allocator@D@2@@std@@0@Z@0@$$T@Z
	??$?8$$A6AXW4MsgType@Subscriber@redis@sw@@V?$optional@V?$basic_string@DU?$char_traits@D@std@@V?$allocator@D@2@@std@@@std@@_J@Z@std@@YA_NAEBV?$function@$$A6AXW4MsgType@Subscriber@redis@sw@@V?$optional@V?$basic_string@DU?$char_traits@D@std@@V?$allocator@D@2@@std@@@std@@_J@Z@0@$$T@Z
	??$?8DU?$char_traits@D@std@@V?$allocator@D@1@@std@@YA_NQEBDAEBV?$basic_string@DU?$char_traits@D@std@@V?$allocator@D@2@@0@@Z
	??$?9DU?$char_traits@D@std@@V?$allocator@D@1@@std@@YA_NAEBV?$basic_string@DU?$char_traits@D@std@@V?$allocator@D@2@@0@0@Z
	??$?9DU?$char_traits@D@std@@V?$allocator@D@1@@std@@YA_NAEBV?$basic_string@DU?$char_traits@D@std@@V?$allocator@D@2@@0@QEBD@Z
	??$?HDU?$char_traits@D@std@@V?$allocator@D@1@@std@@YA?AV?$basic_string@DU?$char_traits@D@std@@V?$allocator@D@2@@0@$$QEAV10@0@Z
	??$?HDU?$char_traits@D@std@@V?$allocator@D@1@@std@@YA?AV?$basic_string@DU?$char_traits@D@std@@V?$allocator@D@2@@0@$$QEAV10@QEBD@Z
	??$?HDU?$char_traits@D@std@@V?$allocator@D@1@@std@@YA?AV?$basic_string@DU?$char_traits@D@std@@V?$allocator@D@2@@0@AEBV10@QEBD@Z
	??$?HDU?$char_traits@D@std@@V?$allocator@D@1@@std@@YA?AV?$basic_string@DU?$char_traits@D@std@@V?$allocator@D@2@@0@QEBD$$QEAV10@@Z
	??$?HDU?$char_traits@D@std@@V?$allocator@D@1@@std@@YA?AV?$basic_string@DU?$char_traits@D@std@@V?$allocator@D@2@@0@QEBDAEBV10@@Z
	??$?RUNode@redis@sw@@@?$_Uhash_compare@UNode@redis@sw@@UNodeHash@23@U?$equal_to@UNode@redis@sw@@@std@@@std@@QEBA_KAEBUNode@redis@sw@@@Z
	??$_Allocate_manually_vector_aligned@U_Default_allocate_traits@std@@@std@@YAPEAX_K@Z
	??$_Copy_memmove@PEAPEAVConnection@redis@sw@@PEAPEAV123@@std@@YAPEAPEAVConnection@redis@sw@@PEAPEAV123@00@Z
	??$_Copy_memmove@PEAPEBDPEAPEBD@std@@YAPEAPEBDPEAPEBD00@Z
	??$_Copy_memmove@PEA_KPEA_K@std@@YAPEA_KPEA_K00@Z
	??$_Copy_nodes@U_Copy_tag@?$_Tree@V?$_Tmap_traits@USlotRange@redis@sw@@UNode@23@U?$less@USlotRange@redis@sw@@@std@@V?$allocator@U?$pair@$$CBUSlotRange@redis@sw@@UNode@23@@std@@@6@$0A@@std@@@std@@@?$_Tree@V?$_Tmap_traits@USlotRange@redis@sw@@UNode@23@U?$less@USlotRange@redis@sw@@@std@@V?$allocator@U?$pair@$$CBUSlotRange@redis@sw@@UNode@23@@std@@@6@$0A@@std@@@std@@IEAAPEAU?$_Tree_node@U?$pair@$$CBUSlotRange@redis@sw@@UNode@23@@std@@PEAX@1@PEAU21@0U_Copy_tag@01@@Z
	??$_Destroy_range@V?$allocator@U?$pair@V?$basic_string@DU?$char_traits@D@std@@V?$allocator@D@2@@std@@H@std@@@std@@@std@@YAXPEAU?$pair@V?$basic_string@DU?$char_traits@D@std@@V?$allocator@D@2@@std@@H@0@QEAU10@AEAV?$allocator@U?$pair@V?$basic_string@DU?$char_traits@D@std@@V?$allocator@D@2@@std@@H@std@@@0@@Z
	??$_Destroy_range@V?$allocator@UNode@redis@sw@@@std@@@std@@YAXPEAUNode@redis@sw@@QEAU123@AEAV?$allocator@UNode@redis@sw@@@0@@Z
	??$_Destroy_range@V?$allocator@V?$basic_string@DU?$char_traits@D@std@@V?$allocator@D@2@@std@@@std@@@std@@YAXPEAV?$basic_string@DU?$char_traits@D@std@@V?$allocator@D@2@@0@QEAV10@AEAV?$allocator@V?$basic_string@DU?$char_traits@D@std@@V?$allocator@D@2@@std@@@0@@Z
	??$_Destroy_range@V?$allocator@V?$shared_ptr@VConnectionPool@redis@sw@@@std@@@std@@@std@@YAXPEAV?$shared_ptr@VConnectionPool@redis@sw@@@0@QEAV10@AEAV?$allocator@V?$shared_ptr@VConnectionPool@redis@sw@@@std@@@0@@Z
	??$_Destroy_range@V?$allocator@V?$shared_ptr@VRedis@redis@sw@@@std@@@std@@@std@@YAXPEAV?$shared_ptr@VRedis@redis@sw@@@0@QEAV10@AEAV?$allocator@V?$shared_ptr@VRedis@redis@sw@@@std@@@0@@Z
	??$_Emplace@AEBUConnectionOptions@redis@sw@@@?$list@UConnectionOptions@redis@sw@@V?$allocator@UConnectionOptions@redis@sw@@@std@@@std@@QEAAPEAU?$_List_node@UConnectionOptions@redis@sw@@PEAX@1@QEAU21@AEBUConnectionOptions@redis@sw@@@Z
	??$_Emplace_reallocate@AEBV?$shared_ptr@VConnectionPool@redis@sw@@@std@@@?$vector@V?$shared_ptr@VConnectionPool@redis@sw@@@std@@V?$allocator@V?$shared_ptr@VConnectionPool@redis@sw@@@std@@@2@@std@@QEAAPEAV?$shared_ptr@VConnectionPool@redis@sw@@@1@QEAV21@AEBV21@@Z
	??$_Emplace_reallocate@AEBVTask@LockWatcher@redis@sw@@@?$vector@VTask@LockWatcher@redis@sw@@V?$allocator@VTask@LockWatcher@redis@sw@@@std@@@std@@QEAAPEAVTask@LockWatcher@redis@sw@@QEAV2345@AEBV2345@@Z
	??$_Emplace_reallocate@PEBD@?$vector@PEBDV?$allocator@PEBD@std@@@std@@QEAAPEAPEBDQEAPEBD$$QEAPEBD@Z
	??$_Emplace_reallocate@UNode@redis@sw@@@?$vector@UNode@redis@sw@@V?$allocator@UNode@redis@sw@@@std@@@std@@QEAAPEAUNode@redis@sw@@QEAU234@$$QEAU234@@Z
	??$_Emplace_reallocate@V?$basic_string@DU?$char_traits@D@std@@V?$allocator@D@2@@std@@@?$vector@V?$basic_string@DU?$char_traits@D@std@@V?$allocator@D@2@@std@@V?$allocator@V?$basic_string@DU?$char_traits@D@std@@V?$allocator@D@2@@std@@@2@@std@@QEAAPEAV?$basic_string@DU?$char_traits@D@std@@V?$allocator@D@2@@1@QEAV21@$$QEAV21@@Z
	??$_Emplace_reallocate@V?$shared_ptr@VRedis@redis@sw@@@std@@@?$vector@V?$shared_ptr@VRedis@redis@sw@@@std@@V?$allocator@V?$shared_ptr@VRedis@redis@sw@@@std@@@2@@std@@QEAAPEAV?$shared_ptr@VRedis@redis@sw@@@1@QEAV21@$$QEAV21@@Z
	??$_Emplace_reallocate@V?$unique_ptr@UredisReply@@UReplyDeleter@redis@sw@@@std@@@?$vector@V?$unique_ptr@UredisReply@@UReplyDeleter@redis@sw@@@std@@V?$allocator@V?$unique_ptr@UredisReply@@UReplyDeleter@redis@sw@@@std@@@2@@std@@QEAAPEAV?$unique_ptr@UredisReply@@UReplyDeleter@redis@sw@@@1@QEAV21@$$QEAV21@@Z
	??$_Emplace_reallocate@V?$unordered_map@V?$basic_string@DU?$char_traits@D@std@@V?$allocator@D@2@@std@@V12@U?$hash@V?$basic_string@DU?$char_traits@D@std@@V?$allocator@D@2@@std@@@2@U?$equal_to@V?$basic_string@DU?$char_traits@D@std@@V?$allocator@D@2@@std@@@2@V?$allocator@U?$pair@$$CBV?$basic_string@DU?$char_traits@D@std@@V?$allocator@D@2@@std@@V12@@std@@@2@@std@@@?$vector@V?$unordered_map@V?$basic_string@DU?$char_traits@D@std@@V?$allocator@D@2@@std@@V12@U?$hash@V?$basic_string@DU?$char_traits@D@std@@V?$allocator@D@2@@std@@@2@U?$equal_to@V?$basic_string@DU?$char_traits@D@std@@V?$allocator@D@2@@std@@@2@V?$allocator@U?$pair@$$CBV?$basic_string@DU?$char_traits@D@std@@V?$allocator@D@2@@std@@V12@@std@@@2@@std@@V?$allocator@V?$unordered_map@V?$basic_string@DU?$char_traits@D@std@@V?$allocator@D@2@@std@@V12@U?$hash@V?$basic_string@DU?$char_traits@D@std@@V?$allocator@D@2@@std@@@2@U?$equal_to@V?$basic_string@DU?$char_traits@D@std@@V?$allocator@D@2@@std@@@2@V?$allocator@U?$pair@$$CBV?$basic_string@DU?$char_traits@D@std@@V?$allocator@D@2@@std@@V12@@std@@@2@@std@@@2@@std@@QEAAPEAV?$unordered_map@V?$basic_string@DU?$char_traits@D@std@@V?$allocator@D@2@@std@@V12@U?$hash@V?$basic_string@DU?$char_traits@D@std@@V?$allocator@D@2@@std@@@2@U?$equal_to@V?$basic_string@DU?$char_traits@D@std@@V?$allocator@D@2@@std@@@2@V?$allocator@U?$pair@$$CBV?$basic_string@DU?$char_traits@D@std@@V?$allocator@D@2@@std@@V12@@std@@@2@@1@QEAV21@$$QEAV21@@Z
	??$_Emplace_reallocate@VTask@LockWatcher@redis@sw@@@?$vector@VTask@LockWatcher@redis@sw@@V?$allocator@VTask@LockWatcher@redis@sw@@@std@@@std@@QEAAPEAVTask@LockWatcher@redis@sw@@QEAV2345@$$QEAV2345@@Z
	??$_Emplace_reallocate@_K@?$vector@_KV?$allocator@_K@std@@@std@@QEAAPEA_KQEA_K$$QEA_K@Z
	??$_Erase_tree@V?$allocator@U?$_Tree_node@U?$pair@$$CBUSlotRange@redis@sw@@UNode@23@@std@@PEAX@std@@@std@@@?$_Tree_val@U?$_Tree_simple_types@U?$pair@$$CBUSlotRange@redis@sw@@UNode@23@@std@@@std@@@std@@QEAAXAEAV?$allocator@U?$_Tree_node@U?$pair@$$CBUSlotRange@redis@sw@@UNode@23@@std@@PEAX@std@@@1@PEAU?$_Tree_node@U?$pair@$$CBUSlotRange@redis@sw@@UNode@23@@std@@PEAX@1@@Z
	??$_Erase_tree_and_orphan@V?$allocator@U?$_Tree_node@U?$pair@$$CBUSlotRange@redis@sw@@UNode@23@@std@@PEAX@std@@@std@@@?$_Tree_val@U?$_Tree_simple_types@U?$pair@$$CBUSlotRange@redis@sw@@UNode@23@@std@@@std@@@std@@QEAAXAEAV?$allocator@U?$_Tree_node@U?$pair@$$CBUSlotRange@redis@sw@@UNode@23@@std@@PEAX@std@@@1@PEAU?$_Tree_node@U?$pair@$$CBUSlotRange@redis@sw@@UNode@23@@std@@PEAX@1@@Z
	??$_Find_last@UNode@redis@sw@@@?$_Hash@V?$_Umap_traits@UNode@redis@sw@@V?$shared_ptr@VConnectionPool@redis@sw@@@std@@V?$_Uhash_compare@UNode@redis@sw@@UNodeHash@23@U?$equal_to@UNode@redis@sw@@@std@@@5@V?$allocator@U?$pair@$$CBUNode@redis@sw@@V?$shared_ptr@VConnectionPool@redis@sw@@@std@@@std@@@5@$0A@@std@@@std@@IEBA?AU?$_Hash_find_last_result@PEAU?$_List_node@U?$pair@$$CBUNode@redis@sw@@V?$shared_ptr@VConnectionPool@redis@sw@@@std@@@std@@PEAX@std@@@1@AEBUNode@redis@sw@@_K@Z
	??$_Find_last@UNode@redis@sw@@@?$_Hash@V?$_Uset_traits@UNode@redis@sw@@V?$_Uhash_compare@UNode@redis@sw@@UNodeHash@23@U?$equal_to@UNode@redis@sw@@@std@@@std@@V?$allocator@UNode@redis@sw@@@5@$0A@@std@@@std@@IEBA?AU?$_Hash_find_last_result@PEAU?$_List_node@UNode@redis@sw@@PEAX@std@@@1@AEBUNode@redis@sw@@_K@Z
	??$_Find_last@V?$basic_string@DU?$char_traits@D@std@@V?$allocator@D@2@@std@@@?$_Hash@V?$_Umap_traits@V?$basic_string@DU?$char_traits@D@std@@V?$allocator@D@2@@std@@V12@V?$_Uhash_compare@V?$basic_string@DU?$char_traits@D@std@@V?$allocator@D@2@@std@@U?$hash@V?$basic_string@DU?$char_traits@D@std@@V?$allocator@D@2@@std@@@2@U?$equal_to@V?$basic_string@DU?$char_traits@D@std@@V?$allocator@D@2@@std@@@2@@2@V?$allocator@U?$pair@$$CBV?$basic_string@DU?$char_traits@D@std@@V?$allocator@D@2@@std@@V12@@std@@@2@$0A@@std@@@std@@IEBA?AU?$_Hash_find_last_result@PEAU?$_List_node@U?$pair@$$CBV?$basic_string@DU?$char_traits@D@std@@V?$allocator@D@2@@std@@V12@@std@@PEAX@std@@@1@AEBV?$basic_string@DU?$char_traits@D@std@@V?$allocator@D@2@@1@_K@Z
	??$_Find_last@V?$basic_string@DU?$char_traits@D@std@@V?$allocator@D@2@@std@@@?$_Hash@V?$_Umap_traits@V?$basic_string@DU?$char_traits@D@std@@V?$allocator@D@2@@std@@W4ReplyErrorType@redis@sw@@V?$_Uhash_compare@V?$basic_string@DU?$char_traits@D@std@@V?$allocator@D@2@@std@@U?$hash@V?$basic_string@DU?$char_traits@D@std@@V?$allocator@D@2@@std@@@2@U?$equal_to@V?$basic_string@DU?$char_traits@D@std@@V?$allocator@D@2@@std@@@2@@2@V?$allocator@U?$pair@$$CBV?$basic_string@DU?$char_traits@D@std@@V?$allocator@D@2@@std@@W4ReplyErrorType@redis@sw@@@std@@@2@$0A@@std@@@std@@IEBA?AU?$_Hash_find_last_result@PEAU?$_List_node@U?$pair@$$CBV?$basic_string@DU?$char_traits@D@std@@V?$allocator@D@2@@std@@W4ReplyErrorType@redis@sw@@@std@@PEAX@std@@@1@AEBV?$basic_string@DU?$char_traits@D@std@@V?$allocator@D@2@@1@_K@Z
	??$_Fnv1a_append_value@H@std@@YA_K_KAEBH@Z
	??$_Fnv1a_append_value@_K@std@@YA_K_KAEB_K@Z
	??$_Free_non_head@V?$allocator@U?$_List_node@U?$pair@$$CBV?$basic_string@DU?$char_traits@D@std@@V?$allocator@D@2@@std@@W4ReplyErrorType@redis@sw@@@std@@PEAX@std@@@std@@@?$_List_node@U?$pair@$$CBV?$basic_string@DU?$char_traits@D@std@@V?$allocator@D@2@@std@@W4ReplyErrorType@redis@sw@@@std@@PEAX@std@@SAXAEAV?$allocator@U?$_List_node@U?$pair@$$CBV?$basic_string@DU?$char_traits@D@std@@V?$allocator@D@2@@std@@W4ReplyErrorType@redis@sw@@@std@@PEAX@std@@@1@PEAU01@@Z
	??$_Free_non_head@V?$allocator@U?$_List_node@UNode@redis@sw@@PEAX@std@@@std@@@?$_List_node@UNode@redis@sw@@PEAX@std@@SAXAEAV?$allocator@U?$_List_node@UNode@redis@sw@@PEAX@std@@@1@PEAU01@@Z
	??$_Hash_array_representation@D@std@@YA_KQEBD_K@Z
	??$_Hash_representation@H@std@@YA_KAEBH@Z
	??$_Hash_representation@_K@std@@YA_KAEB_K@Z
	??$_Immortalize_memcpy_image@V_Generic_error_category@std@@@std@@YAAEBV_Generic_error_category@0@XZ
	??$_Integral_to_string@DH@std@@YA?AV?$basic_string@DU?$char_traits@D@std@@V?$allocator@D@2@@0@H@Z
	??$_Integral_to_string@D_J@std@@YA?AV?$basic_string@DU?$char_traits@D@std@@V?$allocator@D@2@@0@_J@Z
	??$_Lock_attempt_small@Vmutex@std@@V12@@std@@YA_NAEAVmutex@0@0@Z
	??$_Lock_nonmember1@Vmutex@std@@V12@@std@@YAXAEAVmutex@0@0@Z
	??$_Pop_heap_hole_unchecked@PEAVTask@LockWatcher@redis@sw@@V1234@U?$less@VTask@LockWatcher@redis@sw@@@std@@@std@@YAXPEAVTask@LockWatcher@redis@sw@@00$$QEAV1234@U?$less@VTask@LockWatcher@redis@sw@@@0@@Z
	??$_Push_heap_by_index@PEAVTask@LockWatcher@redis@sw@@V1234@U?$less@VTask@LockWatcher@redis@sw@@@std@@@std@@YAXPEAVTask@LockWatcher@redis@sw@@_J1$$QEAV1234@U?$less@VTask@LockWatcher@redis@sw@@@0@@Z
	??$_Random_shuffle1@V?$_Vector_iterator@V?$_Vector_val@U?$_Simple_types@UNode@redis@sw@@@std@@@std@@@std@@V?$_Rng_from_urng@_JV?$mersenne_twister_engine@I$0CA@$0CHA@$0BIN@$0BP@$0JJAILANP@$0L@$0PPPPPPPP@$06$0JNCMFGIA@$0P@$0OPMGAAAA@$0BC@$0GMAHIJGF@@std@@@2@@std@@YAXV?$_Vector_iterator@V?$_Vector_val@U?$_Simple_types@UNode@redis@sw@@@std@@@std@@@0@0AEAV?$_Rng_from_urng@_JV?$mersenne_twister_engine@I$0CA@$0CHA@$0BIN@$0BP@$0JJAILANP@$0L@$0PPPPPPPP@$06$0JNCMFGIA@$0P@$0OPMGAAAA@$0BC@$0GMAHIJGF@@std@@@0@@Z
	??$_Reallocate_grow_by@V<lambda_319d5e083f45f90dcdce5dce53cbb275>@@D@?$basic_string@DU?$char_traits@D@std@@V?$allocator@D@2@@std@@AEAAAEAV01@_KV<lambda_319d5e083f45f90dcdce5dce53cbb275>@@D@Z
	??$_Reallocate_grow_by@V<lambda_65e615be2a453ca0576c979606f46740>@@PEBD_K@?$basic_string@DU?$char_traits@D@std@@V?$allocator@D@2@@std@@AEAAAEAV01@_KV<lambda_65e615be2a453ca0576c979606f46740>@@PEBD_K@Z
	??$_Reallocate_grow_by@V<lambda_f3a66ab6a0570788f31503db83886f49>@@_KPEBD_K@?$basic_string@DU?$char_traits@D@std@@V?$allocator@D@2@@std@@AEAAAEAV01@_KV<lambda_f3a66ab6a0570788f31503db83886f49>@@_KPEBD2@Z
	??$_To_absolute_time@_JU?$ratio@$00$0DOI@@std@@@std@@YA?A_PAEBV?$duration@_JU?$ratio@$00$0DOI@@std@@@chrono@0@@Z
	??$_To_xtime_10_day_clamped@_JU?$ratio@$00$0DLJKMKAA@@std@@@std@@YA_NAEAUxtime@@AEBV?$duration@_JU?$ratio@$00$0DLJKMKAA@@std@@@chrono@0@@Z
	??$_To_xtime_10_day_clamped@_JU?$ratio@$00$0DOI@@std@@@std@@YA_NAEAUxtime@@AEBV?$duration@_JU?$ratio@$00$0DOI@@std@@@chrono@0@@Z
	??$_Traits_find@U?$char_traits@D@std@@@std@@YA_KQEBD_K101@Z
	??$_UIntegral_to_buff@DI@std@@YAPEADPEADI@Z
	??$_UIntegral_to_buff@D_K@std@@YAPEADPEAD_K@Z
	??$_UIntegral_to_string@D_K@std@@YA?AV?$basic_string@DU?$char_traits@D@std@@V?$allocator@D@2@@0@_K@Z
	??$_Uninitialized_move@PEAUNode@redis@sw@@V?$allocator@UNode@redis@sw@@@std@@@std@@YAPEAUNode@redis@sw@@QEAU123@0PEAU123@AEAV?$allocator@UNode@redis@sw@@@0@@Z
	??$_Uninitialized_move@PEAV?$basic_string@DU?$char_traits@D@std@@V?$allocator@D@2@@std@@V?$allocator@V?$basic_string@DU?$char_traits@D@std@@V?$allocator@D@2@@std@@@2@@std@@YAPEAV?$basic_string@DU?$char_traits@D@std@@V?$allocator@D@2@@0@QEAV10@0PEAV10@AEAV?$allocator@V?$basic_string@DU?$char_traits@D@std@@V?$allocator@D@2@@std@@@0@@Z
	??$_Uninitialized_value_construct_n_unchecked1@PEAPEAVConnection@redis@sw@@_K@std@@YAPEAPEAVConnection@redis@sw@@PEAPEAV123@_K@Z
	??$_Zero_range@PEAPEAVConnection@redis@sw@@@std@@YAPEAPEAVConnection@redis@sw@@QEAPEAV123@0@Z
	??$_append@PEBV?$basic_string_view@DU?$char_traits@D@std@@@std@@@CmdArgs@redis@sw@@AEAAAEAV012@U?$integral_constant@_N$0A@@std@@AEBU?$pair@PEBV?$basic_string_view@DU?$char_traits@D@std@@@std@@PEBV12@@4@@Z
	??$_command@P6AXAEAVConnection@redis@sw@@@Z$$V@Redis@redis@sw@@AEAA?AV?$unique_ptr@UredisReply@@UReplyDeleter@redis@sw@@@std@@AEAVConnection@12@P6AX0@Z@Z
	??$_command@P6AXAEAVConnection@redis@sw@@AEBV?$basic_string_view@DU?$char_traits@D@std@@@std@@11@ZAEBV45@AEBV45@@RedisCluster@redis@sw@@AEAA?AV?$unique_ptr@UredisReply@@UReplyDeleter@redis@sw@@@std@@P6AXAEAVConnection@12@AEBV?$basic_string_view@DU?$char_traits@D@std@@@4@11@ZU?$integral_constant@_N$00@4@111@Z
	??$_command@P6AXAEAVConnection@redis@sw@@AEBV?$basic_string_view@DU?$char_traits@D@std@@@std@@11@ZAEBV45@AEBV45@AEBV45@@Redis@redis@sw@@AEAA?AV?$unique_ptr@UredisReply@@UReplyDeleter@redis@sw@@@std@@AEAVConnection@12@P6AX0AEBV?$basic_string_view@DU?$char_traits@D@std@@@4@11@Z111@Z
	??$_command@P6AXAEAVConnection@redis@sw@@AEBV?$basic_string_view@DU?$char_traits@D@std@@@std@@11@ZAEBV45@AEBV45@AEBV45@@RedisCluster@redis@sw@@AEAA?AV?$unique_ptr@UredisReply@@UReplyDeleter@redis@sw@@@std@@P6AXAEAVConnection@12@AEBV?$basic_string_view@DU?$char_traits@D@std@@@4@11@Z0111@Z
	??$_command@P6AXAEAVConnection@redis@sw@@AEBV?$basic_string_view@DU?$char_traits@D@std@@@std@@11@ZAEBV45@AEBV45@AEBV45@@RedisCluster@redis@sw@@AEAA?AV?$unique_ptr@UredisReply@@UReplyDeleter@redis@sw@@@std@@P6AXAEAVConnection@12@AEBV?$basic_string_view@DU?$char_traits@D@std@@@4@11@Z1111@Z
	??$_command@P6AXAEAVConnection@redis@sw@@AEBV?$basic_string_view@DU?$char_traits@D@std@@@std@@11W4GeoUnit@23@@ZAEBV45@AEBV45@AEAW4623@@RedisCluster@redis@sw@@AEAA?AV?$unique_ptr@UredisReply@@UReplyDeleter@redis@sw@@@std@@P6AXAEAVConnection@12@AEBV?$basic_string_view@DU?$char_traits@D@std@@@4@11W4GeoUnit@12@@ZU?$integral_constant@_N$00@4@111AEAW4712@@Z
	??$_command@P6AXAEAVConnection@redis@sw@@AEBV?$basic_string_view@DU?$char_traits@D@std@@@std@@11W4GeoUnit@23@@ZAEBV45@AEBV45@AEBV45@AEAW4623@@Redis@redis@sw@@AEAA?AV?$unique_ptr@UredisReply@@UReplyDeleter@redis@sw@@@std@@AEAVConnection@12@P6AX0AEBV?$basic_string_view@DU?$char_traits@D@std@@@4@11W4GeoUnit@12@@Z111AEAW4712@@Z
	??$_command@P6AXAEAVConnection@redis@sw@@AEBV?$basic_string_view@DU?$char_traits@D@std@@@std@@11W4GeoUnit@23@@ZAEBV45@AEBV45@AEBV45@AEAW4623@@RedisCluster@redis@sw@@AEAA?AV?$unique_ptr@UredisReply@@UReplyDeleter@redis@sw@@@std@@P6AXAEAVConnection@12@AEBV?$basic_string_view@DU?$char_traits@D@std@@@4@11W4GeoUnit@12@@Z0111AEAW4712@@Z
	??$_command@P6AXAEAVConnection@redis@sw@@AEBV?$basic_string_view@DU?$char_traits@D@std@@@std@@11W4GeoUnit@23@@ZAEBV45@AEBV45@AEBV45@AEAW4623@@RedisCluster@redis@sw@@AEAA?AV?$unique_ptr@UredisReply@@UReplyDeleter@redis@sw@@@std@@P6AXAEAVConnection@12@AEBV?$basic_string_view@DU?$char_traits@D@std@@@4@11W4GeoUnit@12@@Z1111AEAW4712@@Z
	??$_command@P6AXAEAVConnection@redis@sw@@AEBV?$basic_string_view@DU?$char_traits@D@std@@@std@@11_N@ZAEBV45@AEBV45@AEA_N@RedisCluster@redis@sw@@AEAA?AV?$unique_ptr@UredisReply@@UReplyDeleter@redis@sw@@@std@@P6AXAEAVConnection@12@AEBV?$basic_string_view@DU?$char_traits@D@std@@@4@11_N@ZU?$integral_constant@_N$00@4@111AEA_N@Z
	??$_command@P6AXAEAVConnection@redis@sw@@AEBV?$basic_string_view@DU?$char_traits@D@std@@@std@@11_N@ZAEBV45@AEBV45@AEBV45@AEA_N@Redis@redis@sw@@AEAA?AV?$unique_ptr@UredisReply@@UReplyDeleter@redis@sw@@@std@@AEAVConnection@12@P6AX0AEBV?$basic_string_view@DU?$char_traits@D@std@@@4@11_N@Z111AEA_N@Z
	??$_command@P6AXAEAVConnection@redis@sw@@AEBV?$basic_string_view@DU?$char_traits@D@std@@@std@@11_N@ZAEBV45@AEBV45@AEBV45@AEA_N@RedisCluster@redis@sw@@AEAA?AV?$unique_ptr@UredisReply@@UReplyDeleter@redis@sw@@@std@@P6AXAEAVConnection@12@AEBV?$basic_string_view@DU?$char_traits@D@std@@@4@11_N@Z0111AEA_N@Z
	??$_command@P6AXAEAVConnection@redis@sw@@AEBV?$basic_string_view@DU?$char_traits@D@std@@@std@@11_N@ZAEBV45@AEBV45@AEBV45@AEA_N@RedisCluster@redis@sw@@AEAA?AV?$unique_ptr@UredisReply@@UReplyDeleter@redis@sw@@@std@@P6AXAEAVConnection@12@AEBV?$basic_string_view@DU?$char_traits@D@std@@@4@11_N@Z1111AEA_N@Z
	??$_command@P6AXAEAVConnection@redis@sw@@AEBV?$basic_string_view@DU?$char_traits@D@std@@@std@@1@ZAEBV45@@RedisCluster@redis@sw@@AEAA?AV?$unique_ptr@UredisReply@@UReplyDeleter@redis@sw@@@std@@P6AXAEAVConnection@12@AEBV?$basic_string_view@DU?$char_traits@D@std@@@4@1@ZU?$integral_constant@_N$00@4@11@Z
	??$_command@P6AXAEAVConnection@redis@sw@@AEBV?$basic_string_view@DU?$char_traits@D@std@@@std@@1@ZAEBV45@AEBV45@@Redis@redis@sw@@AEAA?AV?$unique_ptr@UredisReply@@UReplyDeleter@redis@sw@@@std@@AEAVConnection@12@P6AX0AEBV?$basic_string_view@DU?$char_traits@D@std@@@4@1@Z11@Z
	??$_command@P6AXAEAVConnection@redis@sw@@AEBV?$basic_string_view@DU?$char_traits@D@std@@@std@@1@ZAEBV45@AEBV45@@RedisCluster@redis@sw@@AEAA?AV?$unique_ptr@UredisReply@@UReplyDeleter@redis@sw@@@std@@P6AXAEAVConnection@12@AEBV?$basic_string_view@DU?$char_traits@D@std@@@4@1@Z011@Z
	??$_command@P6AXAEAVConnection@redis@sw@@AEBV?$basic_string_view@DU?$char_traits@D@std@@@std@@1@ZAEBV45@AEBV45@@RedisCluster@redis@sw@@AEAA?AV?$unique_ptr@UredisReply@@UReplyDeleter@redis@sw@@@std@@P6AXAEAVConnection@12@AEBV?$basic_string_view@DU?$char_traits@D@std@@@4@1@Z111@Z
	??$_command@P6AXAEAVConnection@redis@sw@@AEBV?$basic_string_view@DU?$char_traits@D@std@@@std@@1N@ZAEBV45@AEAN@RedisCluster@redis@sw@@AEAA?AV?$unique_ptr@UredisReply@@UReplyDeleter@redis@sw@@@std@@P6AXAEAVConnection@12@AEBV?$basic_string_view@DU?$char_traits@D@std@@@4@1N@ZU?$integral_constant@_N$00@4@11AEAN@Z
	??$_command@P6AXAEAVConnection@redis@sw@@AEBV?$basic_string_view@DU?$char_traits@D@std@@@std@@1N@ZAEBV45@AEBV45@AEAN@Redis@redis@sw@@AEAA?AV?$unique_ptr@UredisReply@@UReplyDeleter@redis@sw@@@std@@AEAVConnection@12@P6AX0AEBV?$basic_string_view@DU?$char_traits@D@std@@@4@1N@Z11AEAN@Z
	??$_command@P6AXAEAVConnection@redis@sw@@AEBV?$basic_string_view@DU?$char_traits@D@std@@@std@@1N@ZAEBV45@AEBV45@AEAN@RedisCluster@redis@sw@@AEAA?AV?$unique_ptr@UredisReply@@UReplyDeleter@redis@sw@@@std@@P6AXAEAVConnection@12@AEBV?$basic_string_view@DU?$char_traits@D@std@@@4@1N@Z011AEAN@Z
	??$_command@P6AXAEAVConnection@redis@sw@@AEBV?$basic_string_view@DU?$char_traits@D@std@@@std@@1N@ZAEBV45@AEBV45@AEAN@RedisCluster@redis@sw@@AEAA?AV?$unique_ptr@UredisReply@@UReplyDeleter@redis@sw@@@std@@P6AXAEAVConnection@12@AEBV?$basic_string_view@DU?$char_traits@D@std@@@4@1N@Z111AEAN@Z
	??$_command@P6AXAEAVConnection@redis@sw@@AEBV?$basic_string_view@DU?$char_traits@D@std@@@std@@1NW4GeoUnit@23@1_N_J@ZAEBV45@AEANAEAW4623@AEBV45@AEA_NAEA_J@RedisCluster@redis@sw@@AEAA?AV?$unique_ptr@UredisReply@@UReplyDeleter@redis@sw@@@std@@P6AXAEAVConnection@12@AEBV?$basic_string_view@DU?$char_traits@D@std@@@4@1NW4GeoUnit@12@1_N_J@ZU?$integral_constant@_N$00@4@11AEANAEAW4712@1AEA_NAEA_J@Z
	??$_command@P6AXAEAVConnection@redis@sw@@AEBV?$basic_string_view@DU?$char_traits@D@std@@@std@@1NW4GeoUnit@23@1_N_J@ZAEBV45@AEBV45@AEANAEAW4623@AEBV45@AEA_NAEA_J@Redis@redis@sw@@AEAA?AV?$unique_ptr@UredisReply@@UReplyDeleter@redis@sw@@@std@@AEAVConnection@12@P6AX0AEBV?$basic_string_view@DU?$char_traits@D@std@@@4@1NW4GeoUnit@12@1_N_J@Z11AEANAEAW4712@1AEA_NAEA_J@Z
	??$_command@P6AXAEAVConnection@redis@sw@@AEBV?$basic_string_view@DU?$char_traits@D@std@@@std@@1NW4GeoUnit@23@1_N_J@ZAEBV45@AEBV45@AEANAEAW4623@AEBV45@AEA_NAEA_J@RedisCluster@redis@sw@@AEAA?AV?$unique_ptr@UredisReply@@UReplyDeleter@redis@sw@@@std@@P6AXAEAVConnection@12@AEBV?$basic_string_view@DU?$char_traits@D@std@@@4@1NW4GeoUnit@12@1_N_J@Z011AEANAEAW4712@1AEA_NAEA_J@Z
	??$_command@P6AXAEAVConnection@redis@sw@@AEBV?$basic_string_view@DU?$char_traits@D@std@@@std@@1NW4GeoUnit@23@1_N_J@ZAEBV45@AEBV45@AEANAEAW4623@AEBV45@AEA_NAEA_J@RedisCluster@redis@sw@@AEAA?AV?$unique_ptr@UredisReply@@UReplyDeleter@redis@sw@@@std@@P6AXAEAVConnection@12@AEBV?$basic_string_view@DU?$char_traits@D@std@@@4@1NW4GeoUnit@12@1_N_J@Z111AEANAEAW4712@1AEA_NAEA_J@Z
	??$_command@P6AXAEAVConnection@redis@sw@@AEBV?$basic_string_view@DU?$char_traits@D@std@@@std@@1NW4UpdateType@23@_N@ZAEBV45@AEANAEAW4623@AEA_N@RedisCluster@redis@sw@@AEAA?AV?$unique_ptr@UredisReply@@UReplyDeleter@redis@sw@@@std@@P6AXAEAVConnection@12@AEBV?$basic_string_view@DU?$char_traits@D@std@@@4@1NW4UpdateType@12@_N@ZU?$integral_constant@_N$00@4@11AEANAEAW4712@AEA_N@Z
	??$_command@P6AXAEAVConnection@redis@sw@@AEBV?$basic_string_view@DU?$char_traits@D@std@@@std@@1NW4UpdateType@23@_N@ZAEBV45@AEBV45@AEANAEAW4623@AEA_N@Redis@redis@sw@@AEAA?AV?$unique_ptr@UredisReply@@UReplyDeleter@redis@sw@@@std@@AEAVConnection@12@P6AX0AEBV?$basic_string_view@DU?$char_traits@D@std@@@4@1NW4UpdateType@12@_N@Z11AEANAEAW4712@AEA_N@Z
	??$_command@P6AXAEAVConnection@redis@sw@@AEBV?$basic_string_view@DU?$char_traits@D@std@@@std@@1NW4UpdateType@23@_N@ZAEBV45@AEBV45@AEANAEAW4623@AEA_N@RedisCluster@redis@sw@@AEAA?AV?$unique_ptr@UredisReply@@UReplyDeleter@redis@sw@@@std@@P6AXAEAVConnection@12@AEBV?$basic_string_view@DU?$char_traits@D@std@@@4@1NW4UpdateType@12@_N@Z011AEANAEAW4712@AEA_N@Z
	??$_command@P6AXAEAVConnection@redis@sw@@AEBV?$basic_string_view@DU?$char_traits@D@std@@@std@@1NW4UpdateType@23@_N@ZAEBV45@AEBV45@AEANAEAW4623@AEA_N@RedisCluster@redis@sw@@AEAA?AV?$unique_ptr@UredisReply@@UReplyDeleter@redis@sw@@@std@@P6AXAEAVConnection@12@AEBV?$basic_string_view@DU?$char_traits@D@std@@@4@1NW4UpdateType@12@_N@Z111AEANAEAW4712@AEA_N@Z
	??$_command@P6AXAEAVConnection@redis@sw@@AEBV?$basic_string_view@DU?$char_traits@D@std@@@std@@1W4XtrimStrategy@23@_J@ZAEBV45@AEAW4623@AEA_J@RedisCluster@redis@sw@@AEAA?AV?$unique_ptr@UredisReply@@UReplyDeleter@redis@sw@@@std@@P6AXAEAVConnection@12@AEBV?$basic_string_view@DU?$char_traits@D@std@@@4@1W4XtrimStrategy@12@_J@ZU?$integral_constant@_N$00@4@11AEAW4712@AEA_J@Z
	??$_command@P6AXAEAVConnection@redis@sw@@AEBV?$basic_string_view@DU?$char_traits@D@std@@@std@@1W4XtrimStrategy@23@_J@ZAEBV45@AEBV45@AEAW4623@AEA_J@Redis@redis@sw@@AEAA?AV?$unique_ptr@UredisReply@@UReplyDeleter@redis@sw@@@std@@AEAVConnection@12@P6AX0AEBV?$basic_string_view@DU?$char_traits@D@std@@@4@1W4XtrimStrategy@12@_J@Z11AEAW4712@AEA_J@Z
	??$_command@P6AXAEAVConnection@redis@sw@@AEBV?$basic_string_view@DU?$char_traits@D@std@@@std@@1W4XtrimStrategy@23@_J@ZAEBV45@AEBV45@AEAW4623@AEA_J@RedisCluster@redis@sw@@AEAA?AV?$unique_ptr@UredisReply@@UReplyDeleter@redis@sw@@@std@@P6AXAEAVConnection@12@AEBV?$basic_string_view@DU?$char_traits@D@std@@@4@1W4XtrimStrategy@12@_J@Z011AEAW4712@AEA_J@Z
	??$_command@P6AXAEAVConnection@redis@sw@@AEBV?$basic_string_view@DU?$char_traits@D@std@@@std@@1W4XtrimStrategy@23@_J@ZAEBV45@AEBV45@AEAW4623@AEA_J@RedisCluster@redis@sw@@AEAA?AV?$unique_ptr@UredisReply@@UReplyDeleter@redis@sw@@@std@@P6AXAEAVConnection@12@AEBV?$basic_string_view@DU?$char_traits@D@std@@@4@1W4XtrimStrategy@12@_J@Z111AEAW4712@AEA_J@Z
	??$_command@P6AXAEAVConnection@redis@sw@@AEBV?$basic_string_view@DU?$char_traits@D@std@@@std@@1_J@ZAEBV45@AEA_J@RedisCluster@redis@sw@@AEAA?AV?$unique_ptr@UredisReply@@UReplyDeleter@redis@sw@@@std@@P6AXAEAVConnection@12@AEBV?$basic_string_view@DU?$char_traits@D@std@@@4@1_J@ZU?$integral_constant@_N$00@4@11AEA_J@Z
	??$_command@P6AXAEAVConnection@redis@sw@@AEBV?$basic_string_view@DU?$char_traits@D@std@@@std@@1_J@ZAEBV45@AEBV45@AEA_J@Redis@redis@sw@@AEAA?AV?$unique_ptr@UredisReply@@UReplyDeleter@redis@sw@@@std@@AEAVConnection@12@P6AX0AEBV?$basic_string_view@DU?$char_traits@D@std@@@4@1_J@Z11AEA_J@Z
	??$_command@P6AXAEAVConnection@redis@sw@@AEBV?$basic_string_view@DU?$char_traits@D@std@@@std@@1_J@ZAEBV45@AEBV45@AEA_J@RedisCluster@redis@sw@@AEAA?AV?$unique_ptr@UredisReply@@UReplyDeleter@redis@sw@@@std@@P6AXAEAVConnection@12@AEBV?$basic_string_view@DU?$char_traits@D@std@@@4@1_J@Z011AEA_J@Z
	??$_command@P6AXAEAVConnection@redis@sw@@AEBV?$basic_string_view@DU?$char_traits@D@std@@@std@@1_J@ZAEBV45@AEBV45@AEA_J@RedisCluster@redis@sw@@AEAA?AV?$unique_ptr@UredisReply@@UReplyDeleter@redis@sw@@@std@@P6AXAEAVConnection@12@AEBV?$basic_string_view@DU?$char_traits@D@std@@@4@1_J@Z111AEA_J@Z
	??$_command@P6AXAEAVConnection@redis@sw@@AEBV?$basic_string_view@DU?$char_traits@D@std@@@std@@1_JW4UpdateType@23@@ZAEBV45@AEBV45@_JAEAW4623@@Redis@redis@sw@@AEAA?AV?$unique_ptr@UredisReply@@UReplyDeleter@redis@sw@@@std@@AEAVConnection@12@P6AX0AEBV?$basic_string_view@DU?$char_traits@D@std@@@4@1_JW4UpdateType@12@@Z11$$QEA_JAEAW4712@@Z
	??$_command@P6AXAEAVConnection@redis@sw@@AEBV?$basic_string_view@DU?$char_traits@D@std@@@std@@1_JW4UpdateType@23@@ZAEBV45@AEBV45@_JAEAW4623@@RedisCluster@redis@sw@@AEAA?AV?$unique_ptr@UredisReply@@UReplyDeleter@redis@sw@@@std@@P6AXAEAVConnection@12@AEBV?$basic_string_view@DU?$char_traits@D@std@@@4@1_JW4UpdateType@12@@Z011$$QEA_JAEAW4712@@Z
	??$_command@P6AXAEAVConnection@redis@sw@@AEBV?$basic_string_view@DU?$char_traits@D@std@@@std@@1_JW4UpdateType@23@@ZAEBV45@AEBV45@_JAEAW4623@@RedisCluster@redis@sw@@AEAA?AV?$unique_ptr@UredisReply@@UReplyDeleter@redis@sw@@@std@@P6AXAEAVConnection@12@AEBV?$basic_string_view@DU?$char_traits@D@std@@@4@1_JW4UpdateType@12@@Z111$$QEA_JAEAW4712@@Z
	??$_command@P6AXAEAVConnection@redis@sw@@AEBV?$basic_string_view@DU?$char_traits@D@std@@@std@@1_JW4UpdateType@23@@ZAEBV45@_JAEAW4623@@RedisCluster@redis@sw@@AEAA?AV?$unique_ptr@UredisReply@@UReplyDeleter@redis@sw@@@std@@P6AXAEAVConnection@12@AEBV?$basic_string_view@DU?$char_traits@D@std@@@4@1_JW4UpdateType@12@@ZU?$integral_constant@_N$00@4@11$$QEA_JAEAW4712@@Z
	??$_command@P6AXAEAVConnection@redis@sw@@AEBV?$basic_string_view@DU?$char_traits@D@std@@@std@@1_J_N@ZAEBV45@AEA_JAEA_N@RedisCluster@redis@sw@@AEAA?AV?$unique_ptr@UredisReply@@UReplyDeleter@redis@sw@@@std@@P6AXAEAVConnection@12@AEBV?$basic_string_view@DU?$char_traits@D@std@@@4@1_J_N@ZU?$integral_constant@_N$00@4@11AEA_JAEA_N@Z
	??$_command@P6AXAEAVConnection@redis@sw@@AEBV?$basic_string_view@DU?$char_traits@D@std@@@std@@1_J_N@ZAEBV45@AEBV45@AEA_JAEA_N@Redis@redis@sw@@AEAA?AV?$unique_ptr@UredisReply@@UReplyDeleter@redis@sw@@@std@@AEAVConnection@12@P6AX0AEBV?$basic_string_view@DU?$char_traits@D@std@@@4@1_J_N@Z11AEA_JAEA_N@Z
	??$_command@P6AXAEAVConnection@redis@sw@@AEBV?$basic_string_view@DU?$char_traits@D@std@@@std@@1_J_N@ZAEBV45@AEBV45@AEA_JAEA_N@RedisCluster@redis@sw@@AEAA?AV?$unique_ptr@UredisReply@@UReplyDeleter@redis@sw@@@std@@P6AXAEAVConnection@12@AEBV?$basic_string_view@DU?$char_traits@D@std@@@4@1_J_N@Z011AEA_JAEA_N@Z
	??$_command@P6AXAEAVConnection@redis@sw@@AEBV?$basic_string_view@DU?$char_traits@D@std@@@std@@1_J_N@ZAEBV45@AEBV45@AEA_JAEA_N@RedisCluster@redis@sw@@AEAA?AV?$unique_ptr@UredisReply@@UReplyDeleter@redis@sw@@@std@@P6AXAEAVConnection@12@AEBV?$basic_string_view@DU?$char_traits@D@std@@@4@1_J_N@Z111AEA_JAEA_N@Z
	??$_command@P6AXAEAVConnection@redis@sw@@AEBV?$basic_string_view@DU?$char_traits@D@std@@@std@@1_NW4UpdateType@23@@ZAEBV45@AEA_NAEAW4623@@RedisCluster@redis@sw@@AEAA?AV?$unique_ptr@UredisReply@@UReplyDeleter@redis@sw@@@std@@P6AXAEAVConnection@12@AEBV?$basic_string_view@DU?$char_traits@D@std@@@4@1_NW4UpdateType@12@@ZU?$integral_constant@_N$00@4@11AEA_NAEAW4712@@Z
	??$_command@P6AXAEAVConnection@redis@sw@@AEBV?$basic_string_view@DU?$char_traits@D@std@@@std@@1_NW4UpdateType@23@@ZAEBV45@AEBV45@AEA_NAEAW4623@@Redis@redis@sw@@AEAA?AV?$unique_ptr@UredisReply@@UReplyDeleter@redis@sw@@@std@@AEAVConnection@12@P6AX0AEBV?$basic_string_view@DU?$char_traits@D@std@@@4@1_NW4UpdateType@12@@Z11AEA_NAEAW4712@@Z
	??$_command@P6AXAEAVConnection@redis@sw@@AEBV?$basic_string_view@DU?$char_traits@D@std@@@std@@1_NW4UpdateType@23@@ZAEBV45@AEBV45@AEA_NAEAW4623@@RedisCluster@redis@sw@@AEAA?AV?$unique_ptr@UredisReply@@UReplyDeleter@redis@sw@@@std@@P6AXAEAVConnection@12@AEBV?$basic_string_view@DU?$char_traits@D@std@@@4@1_NW4UpdateType@12@@Z011AEA_NAEAW4712@@Z
	??$_command@P6AXAEAVConnection@redis@sw@@AEBV?$basic_string_view@DU?$char_traits@D@std@@@std@@1_NW4UpdateType@23@@ZAEBV45@AEBV45@AEA_NAEAW4623@@RedisCluster@redis@sw@@AEAA?AV?$unique_ptr@UredisReply@@UReplyDeleter@redis@sw@@@std@@P6AXAEAVConnection@12@AEBV?$basic_string_view@DU?$char_traits@D@std@@@4@1_NW4UpdateType@12@@Z111AEA_NAEAW4712@@Z
	??$_command@P6AXAEAVConnection@redis@sw@@AEBV?$basic_string_view@DU?$char_traits@D@std@@@std@@1_NW4XtrimStrategy@23@@ZAEBV45@AEA_NAEAW4623@@RedisCluster@redis@sw@@AEAA?AV?$unique_ptr@UredisReply@@UReplyDeleter@redis@sw@@@std@@P6AXAEAVConnection@12@AEBV?$basic_string_view@DU?$char_traits@D@std@@@4@1_NW4XtrimStrategy@12@@ZU?$integral_constant@_N$00@4@11AEA_NAEAW4712@@Z
	??$_command@P6AXAEAVConnection@redis@sw@@AEBV?$basic_string_view@DU?$char_traits@D@std@@@std@@1_NW4XtrimStrategy@23@@ZAEBV45@AEBV45@AEA_NAEAW4623@@Redis@redis@sw@@AEAA?AV?$unique_ptr@UredisReply@@UReplyDeleter@redis@sw@@@std@@AEAVConnection@12@P6AX0AEBV?$basic_string_view@DU?$char_traits@D@std@@@4@1_NW4XtrimStrategy@12@@Z11AEA_NAEAW4712@@Z
	??$_command@P6AXAEAVConnection@redis@sw@@AEBV?$basic_string_view@DU?$char_traits@D@std@@@std@@1_NW4XtrimStrategy@23@@ZAEBV45@AEBV45@AEA_NAEAW4623@@RedisCluster@redis@sw@@AEAA?AV?$unique_ptr@UredisReply@@UReplyDeleter@redis@sw@@@std@@P6AXAEAVConnection@12@AEBV?$basic_string_view@DU?$char_traits@D@std@@@4@1_NW4XtrimStrategy@12@@Z011AEA_NAEAW4712@@Z
	??$_command@P6AXAEAVConnection@redis@sw@@AEBV?$basic_string_view@DU?$char_traits@D@std@@@std@@1_NW4XtrimStrategy@23@@ZAEBV45@AEBV45@AEA_NAEAW4623@@RedisCluster@redis@sw@@AEAA?AV?$unique_ptr@UredisReply@@UReplyDeleter@redis@sw@@@std@@P6AXAEAVConnection@12@AEBV?$basic_string_view@DU?$char_traits@D@std@@@4@1_NW4XtrimStrategy@12@@Z111AEA_NAEAW4712@@Z
	??$_command@P6AXAEAVConnection@redis@sw@@AEBV?$basic_string_view@DU?$char_traits@D@std@@@std@@@Z$$V@RedisCluster@redis@sw@@AEAA?AV?$unique_ptr@UredisReply@@UReplyDeleter@redis@sw@@@std@@P6AXAEAVConnection@12@AEBV?$basic_string_view@DU?$char_traits@D@std@@@4@@ZU?$integral_constant@_N$00@4@1@Z
	??$_command@P6AXAEAVConnection@redis@sw@@AEBV?$basic_string_view@DU?$char_traits@D@std@@@std@@@ZAEBV45@@Redis@redis@sw@@AEAA?AV?$unique_ptr@UredisReply@@UReplyDeleter@redis@sw@@@std@@AEAVConnection@12@P6AX0AEBV?$basic_string_view@DU?$char_traits@D@std@@@4@@Z1@Z
	??$_command@P6AXAEAVConnection@redis@sw@@AEBV?$basic_string_view@DU?$char_traits@D@std@@@std@@@ZAEBV45@@RedisCluster@redis@sw@@AEAA?AV?$unique_ptr@UredisReply@@UReplyDeleter@redis@sw@@@std@@P6AXAEAVConnection@12@AEBV?$basic_string_view@DU?$char_traits@D@std@@@4@@Z01@Z
	??$_command@P6AXAEAVConnection@redis@sw@@AEBV?$basic_string_view@DU?$char_traits@D@std@@@std@@@ZAEBV45@@RedisCluster@redis@sw@@AEAA?AV?$unique_ptr@UredisReply@@UReplyDeleter@redis@sw@@@std@@P6AXAEAVConnection@12@AEBV?$basic_string_view@DU?$char_traits@D@std@@@4@@Z11@Z
	??$_command@P6AXAEAVConnection@redis@sw@@AEBV?$basic_string_view@DU?$char_traits@D@std@@@std@@AEBU?$pair@NN@5@NW4GeoUnit@23@1_N_J@ZAEBU65@AEANAEAW4723@AEBV45@AEA_NAEA_J@RedisCluster@redis@sw@@AEAA?AV?$unique_ptr@UredisReply@@UReplyDeleter@redis@sw@@@std@@P6AXAEAVConnection@12@AEBV?$basic_string_view@DU?$char_traits@D@std@@@4@AEBU?$pair@NN@4@NW4GeoUnit@12@1_N_J@ZU?$integral_constant@_N$00@4@12AEANAEAW4812@1AEA_NAEA_J@Z
	??$_command@P6AXAEAVConnection@redis@sw@@AEBV?$basic_string_view@DU?$char_traits@D@std@@@std@@AEBU?$pair@NN@5@NW4GeoUnit@23@1_N_J@ZAEBV45@AEBU65@AEANAEAW4723@AEBV45@AEA_NAEA_J@Redis@redis@sw@@AEAA?AV?$unique_ptr@UredisReply@@UReplyDeleter@redis@sw@@@std@@AEAVConnection@12@P6AX0AEBV?$basic_string_view@DU?$char_traits@D@std@@@4@AEBU?$pair@NN@4@NW4GeoUnit@12@1_N_J@Z12AEANAEAW4812@1AEA_NAEA_J@Z
	??$_command@P6AXAEAVConnection@redis@sw@@AEBV?$basic_string_view@DU?$char_traits@D@std@@@std@@AEBU?$pair@NN@5@NW4GeoUnit@23@1_N_J@ZAEBV45@AEBU65@AEANAEAW4723@AEBV45@AEA_NAEA_J@RedisCluster@redis@sw@@AEAA?AV?$unique_ptr@UredisReply@@UReplyDeleter@redis@sw@@@std@@P6AXAEAVConnection@12@AEBV?$basic_string_view@DU?$char_traits@D@std@@@4@AEBU?$pair@NN@4@NW4GeoUnit@12@1_N_J@Z012AEANAEAW4812@1AEA_NAEA_J@Z
	??$_command@P6AXAEAVConnection@redis@sw@@AEBV?$basic_string_view@DU?$char_traits@D@std@@@std@@AEBU?$pair@NN@5@NW4GeoUnit@23@1_N_J@ZAEBV45@AEBU65@AEANAEAW4723@AEBV45@AEA_NAEA_J@RedisCluster@redis@sw@@AEAA?AV?$unique_ptr@UredisReply@@UReplyDeleter@redis@sw@@@std@@P6AXAEAVConnection@12@AEBV?$basic_string_view@DU?$char_traits@D@std@@@4@AEBU?$pair@NN@4@NW4GeoUnit@12@1_N_J@Z112AEANAEAW4812@1AEA_NAEA_J@Z
	??$_command@P6AXAEAVConnection@redis@sw@@AEBV?$basic_string_view@DU?$char_traits@D@std@@@std@@AEBV?$tuple@V?$basic_string_view@DU?$char_traits@D@std@@@std@@NN@5@@ZAEBV45@AEBV65@@Redis@redis@sw@@AEAA?AV?$unique_ptr@UredisReply@@UReplyDeleter@redis@sw@@@std@@AEAVConnection@12@P6AX0AEBV?$basic_string_view@DU?$char_traits@D@std@@@4@AEBV?$tuple@V?$basic_string_view@DU?$char_traits@D@std@@@std@@NN@4@@Z12@Z
	??$_command@P6AXAEAVConnection@redis@sw@@AEBV?$basic_string_view@DU?$char_traits@D@std@@@std@@AEBV?$tuple@V?$basic_string_view@DU?$char_traits@D@std@@@std@@NN@5@@ZAEBV45@AEBV65@@RedisCluster@redis@sw@@AEAA?AV?$unique_ptr@UredisReply@@UReplyDeleter@redis@sw@@@std@@P6AXAEAVConnection@12@AEBV?$basic_string_view@DU?$char_traits@D@std@@@4@AEBV?$tuple@V?$basic_string_view@DU?$char_traits@D@std@@@std@@NN@4@@Z012@Z
	??$_command@P6AXAEAVConnection@redis@sw@@AEBV?$basic_string_view@DU?$char_traits@D@std@@@std@@AEBV?$tuple@V?$basic_string_view@DU?$char_traits@D@std@@@std@@NN@5@@ZAEBV45@AEBV65@@RedisCluster@redis@sw@@AEAA?AV?$unique_ptr@UredisReply@@UReplyDeleter@redis@sw@@@std@@P6AXAEAVConnection@12@AEBV?$basic_string_view@DU?$char_traits@D@std@@@4@AEBV?$tuple@V?$basic_string_view@DU?$char_traits@D@std@@@std@@NN@4@@Z112@Z
	??$_command@P6AXAEAVConnection@redis@sw@@AEBV?$basic_string_view@DU?$char_traits@D@std@@@std@@AEBV?$tuple@V?$basic_string_view@DU?$char_traits@D@std@@@std@@NN@5@@ZAEBV65@@RedisCluster@redis@sw@@AEAA?AV?$unique_ptr@UredisReply@@UReplyDeleter@redis@sw@@@std@@P6AXAEAVConnection@12@AEBV?$basic_string_view@DU?$char_traits@D@std@@@4@AEBV?$tuple@V?$basic_string_view@DU?$char_traits@D@std@@@std@@NN@4@@ZU?$integral_constant@_N$00@4@12@Z
	??$_command@P6AXAEAVConnection@redis@sw@@AEBV?$basic_string_view@DU?$char_traits@D@std@@@std@@N1@ZAEANAEBV45@@RedisCluster@redis@sw@@AEAA?AV?$unique_ptr@UredisReply@@UReplyDeleter@redis@sw@@@std@@P6AXAEAVConnection@12@AEBV?$basic_string_view@DU?$char_traits@D@std@@@4@N1@ZU?$integral_constant@_N$00@4@1AEAN1@Z
	??$_command@P6AXAEAVConnection@redis@sw@@AEBV?$basic_string_view@DU?$char_traits@D@std@@@std@@N1@ZAEBV45@AEANAEBV45@@Redis@redis@sw@@AEAA?AV?$unique_ptr@UredisReply@@UReplyDeleter@redis@sw@@@std@@AEAVConnection@12@P6AX0AEBV?$basic_string_view@DU?$char_traits@D@std@@@4@N1@Z1AEAN1@Z
	??$_command@P6AXAEAVConnection@redis@sw@@AEBV?$basic_string_view@DU?$char_traits@D@std@@@std@@N1@ZAEBV45@AEANAEBV45@@RedisCluster@redis@sw@@AEAA?AV?$unique_ptr@UredisReply@@UReplyDeleter@redis@sw@@@std@@P6AXAEAVConnection@12@AEBV?$basic_string_view@DU?$char_traits@D@std@@@4@N1@Z01AEAN1@Z
	??$_command@P6AXAEAVConnection@redis@sw@@AEBV?$basic_string_view@DU?$char_traits@D@std@@@std@@N1@ZAEBV45@AEANAEBV45@@RedisCluster@redis@sw@@AEAA?AV?$unique_ptr@UredisReply@@UReplyDeleter@redis@sw@@@std@@P6AXAEAVConnection@12@AEBV?$basic_string_view@DU?$char_traits@D@std@@@4@N1@Z11AEAN1@Z
	??$_command@P6AXAEAVConnection@redis@sw@@AEBV?$basic_string_view@DU?$char_traits@D@std@@@std@@N@ZAEAN@RedisCluster@redis@sw@@AEAA?AV?$unique_ptr@UredisReply@@UReplyDeleter@redis@sw@@@std@@P6AXAEAVConnection@12@AEBV?$basic_string_view@DU?$char_traits@D@std@@@4@N@ZU?$integral_constant@_N$00@4@1AEAN@Z
	??$_command@P6AXAEAVConnection@redis@sw@@AEBV?$basic_string_view@DU?$char_traits@D@std@@@std@@N@ZAEBV45@AEAN@Redis@redis@sw@@AEAA?AV?$unique_ptr@UredisReply@@UReplyDeleter@redis@sw@@@std@@AEAVConnection@12@P6AX0AEBV?$basic_string_view@DU?$char_traits@D@std@@@4@N@Z1AEAN@Z
	??$_command@P6AXAEAVConnection@redis@sw@@AEBV?$basic_string_view@DU?$char_traits@D@std@@@std@@N@ZAEBV45@AEAN@RedisCluster@redis@sw@@AEAA?AV?$unique_ptr@UredisReply@@UReplyDeleter@redis@sw@@@std@@P6AXAEAVConnection@12@AEBV?$basic_string_view@DU?$char_traits@D@std@@@4@N@Z01AEAN@Z
	??$_command@P6AXAEAVConnection@redis@sw@@AEBV?$basic_string_view@DU?$char_traits@D@std@@@std@@N@ZAEBV45@AEAN@RedisCluster@redis@sw@@AEAA?AV?$unique_ptr@UredisReply@@UReplyDeleter@redis@sw@@@std@@P6AXAEAVConnection@12@AEBV?$basic_string_view@DU?$char_traits@D@std@@@4@N@Z11AEAN@Z
	??$_command@P6AXAEAVConnection@redis@sw@@AEBV?$basic_string_view@DU?$char_traits@D@std@@@std@@PEBV45@222@ZAEBV45@AEAPEBV45@AEAPEBV45@AEAPEBV45@AEAPEBV45@@Redis@redis@sw@@AEAA?AV?$unique_ptr@UredisReply@@UReplyDeleter@redis@sw@@@std@@AEAVConnection@12@P6AX0AEBV?$basic_string_view@DU?$char_traits@D@std@@@4@PEBV64@222@Z1AEAPEBV64@444@Z
	??$_command@P6AXAEAVConnection@redis@sw@@AEBV?$basic_string_view@DU?$char_traits@D@std@@@std@@W4InsertPosition@23@11@ZAEAW4623@AEBV45@AEBV45@@RedisCluster@redis@sw@@AEAA?AV?$unique_ptr@UredisReply@@UReplyDeleter@redis@sw@@@std@@P6AXAEAVConnection@12@AEBV?$basic_string_view@DU?$char_traits@D@std@@@4@W4InsertPosition@12@11@ZU?$integral_constant@_N$00@4@1AEAW4712@11@Z
	??$_command@P6AXAEAVConnection@redis@sw@@AEBV?$basic_string_view@DU?$char_traits@D@std@@@std@@W4InsertPosition@23@11@ZAEBV45@AEAW4623@AEBV45@AEBV45@@Redis@redis@sw@@AEAA?AV?$unique_ptr@UredisReply@@UReplyDeleter@redis@sw@@@std@@AEAVConnection@12@P6AX0AEBV?$basic_string_view@DU?$char_traits@D@std@@@4@W4InsertPosition@12@11@Z1AEAW4712@11@Z
	??$_command@P6AXAEAVConnection@redis@sw@@AEBV?$basic_string_view@DU?$char_traits@D@std@@@std@@W4InsertPosition@23@11@ZAEBV45@AEAW4623@AEBV45@AEBV45@@RedisCluster@redis@sw@@AEAA?AV?$unique_ptr@UredisReply@@UReplyDeleter@redis@sw@@@std@@P6AXAEAVConnection@12@AEBV?$basic_string_view@DU?$char_traits@D@std@@@4@W4InsertPosition@12@11@Z01AEAW4712@11@Z
	??$_command@P6AXAEAVConnection@redis@sw@@AEBV?$basic_string_view@DU?$char_traits@D@std@@@std@@W4InsertPosition@23@11@ZAEBV45@AEAW4623@AEBV45@AEBV45@@RedisCluster@redis@sw@@AEAA?AV?$unique_ptr@UredisReply@@UReplyDeleter@redis@sw@@@std@@P6AXAEAVConnection@12@AEBV?$basic_string_view@DU?$char_traits@D@std@@@4@W4InsertPosition@12@11@Z11AEAW4712@11@Z
	??$_command@P6AXAEAVConnection@redis@sw@@AEBV?$basic_string_view@DU?$char_traits@D@std@@@std@@_J1@ZAEA_JAEBV45@@RedisCluster@redis@sw@@AEAA?AV?$unique_ptr@UredisReply@@UReplyDeleter@redis@sw@@@std@@P6AXAEAVConnection@12@AEBV?$basic_string_view@DU?$char_traits@D@std@@@4@_J1@ZU?$integral_constant@_N$00@4@1AEA_J1@Z
	??$_command@P6AXAEAVConnection@redis@sw@@AEBV?$basic_string_view@DU?$char_traits@D@std@@@std@@_J1@ZAEBV45@AEA_JAEBV45@@Redis@redis@sw@@AEAA?AV?$unique_ptr@UredisReply@@UReplyDeleter@redis@sw@@@std@@AEAVConnection@12@P6AX0AEBV?$basic_string_view@DU?$char_traits@D@std@@@4@_J1@Z1AEA_J1@Z
	??$_command@P6AXAEAVConnection@redis@sw@@AEBV?$basic_string_view@DU?$char_traits@D@std@@@std@@_J1@ZAEBV45@AEA_JAEBV45@@RedisCluster@redis@sw@@AEAA?AV?$unique_ptr@UredisReply@@UReplyDeleter@redis@sw@@@std@@P6AXAEAVConnection@12@AEBV?$basic_string_view@DU?$char_traits@D@std@@@4@_J1@Z01AEA_J1@Z
	??$_command@P6AXAEAVConnection@redis@sw@@AEBV?$basic_string_view@DU?$char_traits@D@std@@@std@@_J1@ZAEBV45@AEA_JAEBV45@@RedisCluster@redis@sw@@AEAA?AV?$unique_ptr@UredisReply@@UReplyDeleter@redis@sw@@@std@@P6AXAEAVConnection@12@AEBV?$basic_string_view@DU?$char_traits@D@std@@@4@_J1@Z11AEA_J1@Z
	??$_command@P6AXAEAVConnection@redis@sw@@AEBV?$basic_string_view@DU?$char_traits@D@std@@@std@@_J22@ZAEA_JAEA_JAEA_J@RedisCluster@redis@sw@@AEAA?AV?$unique_ptr@UredisReply@@UReplyDeleter@redis@sw@@@std@@P6AXAEAVConnection@12@AEBV?$basic_string_view@DU?$char_traits@D@std@@@4@_J22@ZU?$integral_constant@_N$00@4@1AEA_J55@Z
	??$_command@P6AXAEAVConnection@redis@sw@@AEBV?$basic_string_view@DU?$char_traits@D@std@@@std@@_J22@ZAEBV45@AEA_JAEA_JAEA_J@Redis@redis@sw@@AEAA?AV?$unique_ptr@UredisReply@@UReplyDeleter@redis@sw@@@std@@AEAVConnection@12@P6AX0AEBV?$basic_string_view@DU?$char_traits@D@std@@@4@_J22@Z1AEA_J44@Z
	??$_command@P6AXAEAVConnection@redis@sw@@AEBV?$basic_string_view@DU?$char_traits@D@std@@@std@@_J22@ZAEBV45@AEA_JAEA_JAEA_J@RedisCluster@redis@sw@@AEAA?AV?$unique_ptr@UredisReply@@UReplyDeleter@redis@sw@@@std@@P6AXAEAVConnection@12@AEBV?$basic_string_view@DU?$char_traits@D@std@@@4@_J22@Z01AEA_J44@Z
	??$_command@P6AXAEAVConnection@redis@sw@@AEBV?$basic_string_view@DU?$char_traits@D@std@@@std@@_J22@ZAEBV45@AEA_JAEA_JAEA_J@RedisCluster@redis@sw@@AEAA?AV?$unique_ptr@UredisReply@@UReplyDeleter@redis@sw@@@std@@P6AXAEAVConnection@12@AEBV?$basic_string_view@DU?$char_traits@D@std@@@4@_J22@Z11AEA_J44@Z
	??$_command@P6AXAEAVConnection@redis@sw@@AEBV?$basic_string_view@DU?$char_traits@D@std@@@std@@_J2@ZAEA_JAEA_J@RedisCluster@redis@sw@@AEAA?AV?$unique_ptr@UredisReply@@UReplyDeleter@redis@sw@@@std@@P6AXAEAVConnection@12@AEBV?$basic_string_view@DU?$char_traits@D@std@@@4@_J2@ZU?$integral_constant@_N$00@4@1AEA_J5@Z
	??$_command@P6AXAEAVConnection@redis@sw@@AEBV?$basic_string_view@DU?$char_traits@D@std@@@std@@_J2@ZAEBV45@AEA_JAEA_J@Redis@redis@sw@@AEAA?AV?$unique_ptr@UredisReply@@UReplyDeleter@redis@sw@@@std@@AEAVConnection@12@P6AX0AEBV?$basic_string_view@DU?$char_traits@D@std@@@4@_J2@Z1AEA_J4@Z
	??$_command@P6AXAEAVConnection@redis@sw@@AEBV?$basic_string_view@DU?$char_traits@D@std@@@std@@_J2@ZAEBV45@AEA_JAEA_J@RedisCluster@redis@sw@@AEAA?AV?$unique_ptr@UredisReply@@UReplyDeleter@redis@sw@@@std@@P6AXAEAVConnection@12@AEBV?$basic_string_view@DU?$char_traits@D@std@@@4@_J2@Z01AEA_J4@Z
	??$_command@P6AXAEAVConnection@redis@sw@@AEBV?$basic_string_view@DU?$char_traits@D@std@@@std@@_J2@ZAEBV45@AEA_JAEA_J@RedisCluster@redis@sw@@AEAA?AV?$unique_ptr@UredisReply@@UReplyDeleter@redis@sw@@@std@@P6AXAEAVConnection@12@AEBV?$basic_string_view@DU?$char_traits@D@std@@@4@_J2@Z11AEA_J4@Z
	??$_command@P6AXAEAVConnection@redis@sw@@AEBV?$basic_string_view@DU?$char_traits@D@std@@@std@@_J@ZAEA_J@RedisCluster@redis@sw@@AEAA?AV?$unique_ptr@UredisReply@@UReplyDeleter@redis@sw@@@std@@P6AXAEAVConnection@12@AEBV?$basic_string_view@DU?$char_traits@D@std@@@4@_J@ZU?$integral_constant@_N$00@4@1AEA_J@Z
	??$_command@P6AXAEAVConnection@redis@sw@@AEBV?$basic_string_view@DU?$char_traits@D@std@@@std@@_J@ZAEBV45@AEA_J@Redis@redis@sw@@AEAA?AV?$unique_ptr@UredisReply@@UReplyDeleter@redis@sw@@@std@@AEAVConnection@12@P6AX0AEBV?$basic_string_view@DU?$char_traits@D@std@@@4@_J@Z1AEA_J@Z
	??$_command@P6AXAEAVConnection@redis@sw@@AEBV?$basic_string_view@DU?$char_traits@D@std@@@std@@_J@ZAEBV45@AEA_J@RedisCluster@redis@sw@@AEAA?AV?$unique_ptr@UredisReply@@UReplyDeleter@redis@sw@@@std@@P6AXAEAVConnection@12@AEBV?$basic_string_view@DU?$char_traits@D@std@@@4@_J@Z01AEA_J@Z
	??$_command@P6AXAEAVConnection@redis@sw@@AEBV?$basic_string_view@DU?$char_traits@D@std@@@std@@_J@ZAEBV45@AEA_J@RedisCluster@redis@sw@@AEAA?AV?$unique_ptr@UredisReply@@UReplyDeleter@redis@sw@@@std@@P6AXAEAVConnection@12@AEBV?$basic_string_view@DU?$char_traits@D@std@@@4@_J@Z11AEA_J@Z
	??$_command@P6AXAEAVConnection@redis@sw@@AEBV?$basic_string_view@DU?$char_traits@D@std@@@std@@_J@ZAEBV45@H@Redis@redis@sw@@AEAA?AV?$unique_ptr@UredisReply@@UReplyDeleter@redis@sw@@@std@@AEAVConnection@12@P6AX0AEBV?$basic_string_view@DU?$char_traits@D@std@@@4@_J@Z1$$QEAH@Z
	??$_command@P6AXAEAVConnection@redis@sw@@AEBV?$basic_string_view@DU?$char_traits@D@std@@@std@@_J@ZAEBV45@H@RedisCluster@redis@sw@@AEAA?AV?$unique_ptr@UredisReply@@UReplyDeleter@redis@sw@@@std@@P6AXAEAVConnection@12@AEBV?$basic_string_view@DU?$char_traits@D@std@@@4@_J@Z01$$QEAH@Z
	??$_command@P6AXAEAVConnection@redis@sw@@AEBV?$basic_string_view@DU?$char_traits@D@std@@@std@@_J@ZAEBV45@H@RedisCluster@redis@sw@@AEAA?AV?$unique_ptr@UredisReply@@UReplyDeleter@redis@sw@@@std@@P6AXAEAVConnection@12@AEBV?$basic_string_view@DU?$char_traits@D@std@@@4@_J@Z11$$QEAH@Z
	??$_command@P6AXAEAVConnection@redis@sw@@AEBV?$basic_string_view@DU?$char_traits@D@std@@@std@@_J@ZH@RedisCluster@redis@sw@@AEAA?AV?$unique_ptr@UredisReply@@UReplyDeleter@redis@sw@@@std@@P6AXAEAVConnection@12@AEBV?$basic_string_view@DU?$char_traits@D@std@@@4@_J@ZU?$integral_constant@_N$00@4@1$$QEAH@Z
	??$_command@P6AXAEAVConnection@redis@sw@@AEBV?$basic_string_view@DU?$char_traits@D@std@@@std@@_JW4XtrimStrategy@23@2@ZAEA_JAEAW4623@AEA_J@RedisCluster@redis@sw@@AEAA?AV?$unique_ptr@UredisReply@@UReplyDeleter@redis@sw@@@std@@P6AXAEAVConnection@12@AEBV?$basic_string_view@DU?$char_traits@D@std@@@4@_JW4XtrimStrategy@12@2@ZU?$integral_constant@_N$00@4@1AEA_JAEAW4712@6@Z
	??$_command@P6AXAEAVConnection@redis@sw@@AEBV?$basic_string_view@DU?$char_traits@D@std@@@std@@_JW4XtrimStrategy@23@2@ZAEBV45@AEA_JAEAW4623@AEA_J@Redis@redis@sw@@AEAA?AV?$unique_ptr@UredisReply@@UReplyDeleter@redis@sw@@@std@@AEAVConnection@12@P6AX0AEBV?$basic_string_view@DU?$char_traits@D@std@@@4@_JW4XtrimStrategy@12@2@Z1AEA_JAEAW4712@5@Z
	??$_command@P6AXAEAVConnection@redis@sw@@AEBV?$basic_string_view@DU?$char_traits@D@std@@@std@@_JW4XtrimStrategy@23@2@ZAEBV45@AEA_JAEAW4623@AEA_J@RedisCluster@redis@sw@@AEAA?AV?$unique_ptr@UredisReply@@UReplyDeleter@redis@sw@@@std@@P6AXAEAVConnection@12@AEBV?$basic_string_view@DU?$char_traits@D@std@@@4@_JW4XtrimStrategy@12@2@Z01AEA_JAEAW4712@5@Z
	??$_command@P6AXAEAVConnection@redis@sw@@AEBV?$basic_string_view@DU?$char_traits@D@std@@@std@@_JW4XtrimStrategy@23@2@ZAEBV45@AEA_JAEAW4623@AEA_J@RedisCluster@redis@sw@@AEAA?AV?$unique_ptr@UredisReply@@UReplyDeleter@redis@sw@@@std@@P6AXAEAVConnection@12@AEBV?$basic_string_view@DU?$char_traits@D@std@@@4@_JW4XtrimStrategy@12@2@Z11AEA_JAEAW4712@5@Z
	??$_command@P6AXAEAVConnection@redis@sw@@AEBV?$basic_string_view@DU?$char_traits@D@std@@@std@@_J_NW4XtrimStrategy@23@@ZAEA_JAEA_NAEAW4623@@RedisCluster@redis@sw@@AEAA?AV?$unique_ptr@UredisReply@@UReplyDeleter@redis@sw@@@std@@P6AXAEAVConnection@12@AEBV?$basic_string_view@DU?$char_traits@D@std@@@4@_J_NW4XtrimStrategy@12@@ZU?$integral_constant@_N$00@4@1AEA_JAEA_NAEAW4712@@Z
	??$_command@P6AXAEAVConnection@redis@sw@@AEBV?$basic_string_view@DU?$char_traits@D@std@@@std@@_J_NW4XtrimStrategy@23@@ZAEBV45@AEA_JAEA_NAEAW4623@@Redis@redis@sw@@AEAA?AV?$unique_ptr@UredisReply@@UReplyDeleter@redis@sw@@@std@@AEAVConnection@12@P6AX0AEBV?$basic_string_view@DU?$char_traits@D@std@@@4@_J_NW4XtrimStrategy@12@@Z1AEA_JAEA_NAEAW4712@@Z
	??$_command@P6AXAEAVConnection@redis@sw@@AEBV?$basic_string_view@DU?$char_traits@D@std@@@std@@_J_NW4XtrimStrategy@23@@ZAEBV45@AEA_JAEA_NAEAW4623@@RedisCluster@redis@sw@@AEAA?AV?$unique_ptr@UredisReply@@UReplyDeleter@redis@sw@@@std@@P6AXAEAVConnection@12@AEBV?$basic_string_view@DU?$char_traits@D@std@@@4@_J_NW4XtrimStrategy@12@@Z01AEA_JAEA_NAEAW4712@@Z
	??$_command@P6AXAEAVConnection@redis@sw@@AEBV?$basic_string_view@DU?$char_traits@D@std@@@std@@_J_NW4XtrimStrategy@23@@ZAEBV45@AEA_JAEA_NAEAW4623@@RedisCluster@redis@sw@@AEAA?AV?$unique_ptr@UredisReply@@UReplyDeleter@redis@sw@@@std@@P6AXAEAVConnection@12@AEBV?$basic_string_view@DU?$char_traits@D@std@@@4@_J_NW4XtrimStrategy@12@@Z11AEA_JAEA_NAEAW4712@@Z
	??$_command@P6AXAEAVConnection@redis@sw@@W4BitOp@23@AEBV?$basic_string_view@DU?$char_traits@D@std@@@std@@2@ZAEAW4423@AEBV56@AEBV56@@Redis@redis@sw@@AEAA?AV?$unique_ptr@UredisReply@@UReplyDeleter@redis@sw@@@std@@AEAVConnection@12@P6AX0W4BitOp@12@AEBV?$basic_string_view@DU?$char_traits@D@std@@@4@2@ZAEAW4612@22@Z
	??$_command@P6AXAEAVConnection@redis@sw@@W4BitOp@23@AEBV?$basic_string_view@DU?$char_traits@D@std@@@std@@2@ZAEAW4423@AEBV56@AEBV56@@RedisCluster@redis@sw@@AEAA?AV?$unique_ptr@UredisReply@@UReplyDeleter@redis@sw@@@std@@P6AXAEAVConnection@12@W4BitOp@12@AEBV?$basic_string_view@DU?$char_traits@D@std@@@4@2@Z0AEAW4612@22@Z
	??$_command@P6AXAEAVConnection@redis@sw@@W4BitOp@23@AEBV?$basic_string_view@DU?$char_traits@D@std@@@std@@2@ZAEAW4423@AEBV56@AEBV56@@RedisCluster@redis@sw@@AEAA?AV?$unique_ptr@UredisReply@@UReplyDeleter@redis@sw@@@std@@P6AXAEAVConnection@12@W4BitOp@12@AEBV?$basic_string_view@DU?$char_traits@D@std@@@4@2@Z2AEAW4612@22@Z
	??$_command@P6AXAEAVConnection@redis@sw@@_J1@ZAEA_JAEA_J@Redis@redis@sw@@AEAA?AV?$unique_ptr@UredisReply@@UReplyDeleter@redis@sw@@@std@@AEAVConnection@12@P6AX0_J1@ZAEA_J3@Z
	??$_command@P6AXAEAVConnection@redis@sw@@_N@ZAEA_N@Redis@redis@sw@@AEAA?AV?$unique_ptr@UredisReply@@UReplyDeleter@redis@sw@@@std@@AEAVConnection@12@P6AX0_N@ZAEA_N@Z
	??$_rewrite_replies@P6AXAEAUredisReply@@@Z@?$QueuedRedis@VTransactionImpl@redis@sw@@@redis@sw@@AEBAXAEBV?$vector@_KV?$allocator@_K@std@@@std@@P6AXAEAUredisReply@@@ZAEAV?$vector@V?$unique_ptr@UredisReply@@UReplyDeleter@redis@sw@@@std@@V?$allocator@V?$unique_ptr@UredisReply@@UReplyDeleter@redis@sw@@@std@@@2@@4@@Z
	??$command@P6AXAEAVConnection@redis@sw@@@Z$$V@Redis@redis@sw@@QEAA?AV?$unique_ptr@UredisReply@@UReplyDeleter@redis@sw@@@std@@P6AXAEAVConnection@12@@Z@Z
	??$command@P6AXAEAVConnection@redis@sw@@AEBV?$basic_string_view@DU?$char_traits@D@std@@@std@@11@ZAEBV45@AEBV45@AEBV45@@Redis@redis@sw@@QEAA?AV?$unique_ptr@UredisReply@@UReplyDeleter@redis@sw@@@std@@P6AXAEAVConnection@12@AEBV?$basic_string_view@DU?$char_traits@D@std@@@4@11@Z111@Z
	??$command@P6AXAEAVConnection@redis@sw@@AEBV?$basic_string_view@DU?$char_traits@D@std@@@std@@11@ZAEBV45@AEBV45@AEBV45@@RedisCluster@redis@sw@@QEAA?AV?$unique_ptr@UredisReply@@UReplyDeleter@redis@sw@@@std@@P6AXAEAVConnection@12@AEBV?$basic_string_view@DU?$char_traits@D@std@@@4@11@Z111@Z
	??$command@P6AXAEAVConnection@redis@sw@@AEBV?$basic_string_view@DU?$char_traits@D@std@@@std@@11W4GeoUnit@23@@ZAEBV45@AEBV45@AEBV45@AEAW4623@@Redis@redis@sw@@QEAA?AV?$unique_ptr@UredisReply@@UReplyDeleter@redis@sw@@@std@@P6AXAEAVConnection@12@AEBV?$basic_string_view@DU?$char_traits@D@std@@@4@11W4GeoUnit@12@@Z111AEAW4712@@Z
	??$command@P6AXAEAVConnection@redis@sw@@AEBV?$basic_string_view@DU?$char_traits@D@std@@@std@@11W4GeoUnit@23@@ZAEBV45@AEBV45@AEBV45@AEAW4623@@RedisCluster@redis@sw@@QEAA?AV?$unique_ptr@UredisReply@@UReplyDeleter@redis@sw@@@std@@P6AXAEAVConnection@12@AEBV?$basic_string_view@DU?$char_traits@D@std@@@4@11W4GeoUnit@12@@Z111AEAW4712@@Z
	??$command@P6AXAEAVConnection@redis@sw@@AEBV?$basic_string_view@DU?$char_traits@D@std@@@std@@11_N@ZAEBV45@AEBV45@AEBV45@AEA_N@Redis@redis@sw@@QEAA?AV?$unique_ptr@UredisReply@@UReplyDeleter@redis@sw@@@std@@P6AXAEAVConnection@12@AEBV?$basic_string_view@DU?$char_traits@D@std@@@4@11_N@Z111AEA_N@Z
	??$command@P6AXAEAVConnection@redis@sw@@AEBV?$basic_string_view@DU?$char_traits@D@std@@@std@@11_N@ZAEBV45@AEBV45@AEBV45@AEA_N@RedisCluster@redis@sw@@QEAA?AV?$unique_ptr@UredisReply@@UReplyDeleter@redis@sw@@@std@@P6AXAEAVConnection@12@AEBV?$basic_string_view@DU?$char_traits@D@std@@@4@11_N@Z111AEA_N@Z
	??$command@P6AXAEAVConnection@redis@sw@@AEBV?$basic_string_view@DU?$char_traits@D@std@@@std@@1@ZAEBV45@AEBV45@@Redis@redis@sw@@QEAA?AV?$unique_ptr@UredisReply@@UReplyDeleter@redis@sw@@@std@@P6AXAEAVConnection@12@AEBV?$basic_string_view@DU?$char_traits@D@std@@@4@1@Z11@Z
	??$command@P6AXAEAVConnection@redis@sw@@AEBV?$basic_string_view@DU?$char_traits@D@std@@@std@@1@ZAEBV45@AEBV45@@RedisCluster@redis@sw@@QEAA?AV?$unique_ptr@UredisReply@@UReplyDeleter@redis@sw@@@std@@P6AXAEAVConnection@12@AEBV?$basic_string_view@DU?$char_traits@D@std@@@4@1@Z11@Z
	??$command@P6AXAEAVConnection@redis@sw@@AEBV?$basic_string_view@DU?$char_traits@D@std@@@std@@1N@ZAEBV45@AEBV45@AEAN@Redis@redis@sw@@QEAA?AV?$unique_ptr@UredisReply@@UReplyDeleter@redis@sw@@@std@@P6AXAEAVConnection@12@AEBV?$basic_string_view@DU?$char_traits@D@std@@@4@1N@Z11AEAN@Z
	??$command@P6AXAEAVConnection@redis@sw@@AEBV?$basic_string_view@DU?$char_traits@D@std@@@std@@1N@ZAEBV45@AEBV45@AEAN@RedisCluster@redis@sw@@QEAA?AV?$unique_ptr@UredisReply@@UReplyDeleter@redis@sw@@@std@@P6AXAEAVConnection@12@AEBV?$basic_string_view@DU?$char_traits@D@std@@@4@1N@Z11AEAN@Z
	??$command@P6AXAEAVConnection@redis@sw@@AEBV?$basic_string_view@DU?$char_traits@D@std@@@std@@1NW4GeoUnit@23@1_N_J@ZAEBV45@AEBV45@AEANAEAW4623@AEBV45@AEA_NAEA_J@Redis@redis@sw@@QEAA?AV?$unique_ptr@UredisReply@@UReplyDeleter@redis@sw@@@std@@P6AXAEAVConnection@12@AEBV?$basic_string_view@DU?$char_traits@D@std@@@4@1NW4GeoUnit@12@1_N_J@Z11AEANAEAW4712@1AEA_NAEA_J@Z
	??$command@P6AXAEAVConnection@redis@sw@@AEBV?$basic_string_view@DU?$char_traits@D@std@@@std@@1NW4GeoUnit@23@1_N_J@ZAEBV45@AEBV45@AEANAEAW4623@AEBV45@AEA_NAEA_J@RedisCluster@redis@sw@@QEAA?AV?$unique_ptr@UredisReply@@UReplyDeleter@redis@sw@@@std@@P6AXAEAVConnection@12@AEBV?$basic_string_view@DU?$char_traits@D@std@@@4@1NW4GeoUnit@12@1_N_J@Z11AEANAEAW4712@1AEA_NAEA_J@Z
	??$command@P6AXAEAVConnection@redis@sw@@AEBV?$basic_string_view@DU?$char_traits@D@std@@@std@@1NW4UpdateType@23@_N@ZAEBV45@AEBV45@AEANAEAW4623@AEA_N@Redis@redis@sw@@QEAA?AV?$unique_ptr@UredisReply@@UReplyDeleter@redis@sw@@@std@@P6AXAEAVConnection@12@AEBV?$basic_string_view@DU?$char_traits@D@std@@@4@1NW4UpdateType@12@_N@Z11AEANAEAW4712@AEA_N@Z
	??$command@P6AXAEAVConnection@redis@sw@@AEBV?$basic_string_view@DU?$char_traits@D@std@@@std@@1NW4UpdateType@23@_N@ZAEBV45@AEBV45@AEANAEAW4623@AEA_N@RedisCluster@redis@sw@@QEAA?AV?$unique_ptr@UredisReply@@UReplyDeleter@redis@sw@@@std@@P6AXAEAVConnection@12@AEBV?$basic_string_view@DU?$char_traits@D@std@@@4@1NW4UpdateType@12@_N@Z11AEANAEAW4712@AEA_N@Z
	??$command@P6AXAEAVConnection@redis@sw@@AEBV?$basic_string_view@DU?$char_traits@D@std@@@std@@1W4XtrimStrategy@23@_J@ZAEBV45@AEBV45@AEAW4623@AEA_J@Redis@redis@sw@@QEAA?AV?$unique_ptr@UredisReply@@UReplyDeleter@redis@sw@@@std@@P6AXAEAVConnection@12@AEBV?$basic_string_view@DU?$char_traits@D@std@@@4@1W4XtrimStrategy@12@_J@Z11AEAW4712@AEA_J@Z
	??$command@P6AXAEAVConnection@redis@sw@@AEBV?$basic_string_view@DU?$char_traits@D@std@@@std@@1W4XtrimStrategy@23@_J@ZAEBV45@AEBV45@AEAW4623@AEA_J@RedisCluster@redis@sw@@QEAA?AV?$unique_ptr@UredisReply@@UReplyDeleter@redis@sw@@@std@@P6AXAEAVConnection@12@AEBV?$basic_string_view@DU?$char_traits@D@std@@@4@1W4XtrimStrategy@12@_J@Z11AEAW4712@AEA_J@Z
	??$command@P6AXAEAVConnection@redis@sw@@AEBV?$basic_string_view@DU?$char_traits@D@std@@@std@@1_J@ZAEBV45@AEBV45@AEA_J@Redis@redis@sw@@QEAA?AV?$unique_ptr@UredisReply@@UReplyDeleter@redis@sw@@@std@@P6AXAEAVConnection@12@AEBV?$basic_string_view@DU?$char_traits@D@std@@@4@1_J@Z11AEA_J@Z
	??$command@P6AXAEAVConnection@redis@sw@@AEBV?$basic_string_view@DU?$char_traits@D@std@@@std@@1_J@ZAEBV45@AEBV45@AEA_J@RedisCluster@redis@sw@@QEAA?AV?$unique_ptr@UredisReply@@UReplyDeleter@redis@sw@@@std@@P6AXAEAVConnection@12@AEBV?$basic_string_view@DU?$char_traits@D@std@@@4@1_J@Z11AEA_J@Z
	??$command@P6AXAEAVConnection@redis@sw@@AEBV?$basic_string_view@DU?$char_traits@D@std@@@std@@1_JW4UpdateType@23@@ZAEBV45@AEBV45@_JAEAW4623@@Redis@redis@sw@@QEAA?AV?$unique_ptr@UredisReply@@UReplyDeleter@redis@sw@@@std@@P6AXAEAVConnection@12@AEBV?$basic_string_view@DU?$char_traits@D@std@@@4@1_JW4UpdateType@12@@Z11$$QEA_JAEAW4712@@Z
	??$command@P6AXAEAVConnection@redis@sw@@AEBV?$basic_string_view@DU?$char_traits@D@std@@@std@@1_JW4UpdateType@23@@ZAEBV45@AEBV45@_JAEAW4623@@RedisCluster@redis@sw@@QEAA?AV?$unique_ptr@UredisReply@@UReplyDeleter@redis@sw@@@std@@P6AXAEAVConnection@12@AEBV?$basic_string_view@DU?$char_traits@D@std@@@4@1_JW4UpdateType@12@@Z11$$QEA_JAEAW4712@@Z
	??$command@P6AXAEAVConnection@redis@sw@@AEBV?$basic_string_view@DU?$char_traits@D@std@@@std@@1_J_N@ZAEBV45@AEBV45@AEA_JAEA_N@Redis@redis@sw@@QEAA?AV?$unique_ptr@UredisReply@@UReplyDeleter@redis@sw@@@std@@P6AXAEAVConnection@12@AEBV?$basic_string_view@DU?$char_traits@D@std@@@4@1_J_N@Z11AEA_JAEA_N@Z
	??$command@P6AXAEAVConnection@redis@sw@@AEBV?$basic_string_view@DU?$char_traits@D@std@@@std@@1_J_N@ZAEBV45@AEBV45@AEA_JAEA_N@RedisCluster@redis@sw@@QEAA?AV?$unique_ptr@UredisReply@@UReplyDeleter@redis@sw@@@std@@P6AXAEAVConnection@12@AEBV?$basic_string_view@DU?$char_traits@D@std@@@4@1_J_N@Z11AEA_JAEA_N@Z
	??$command@P6AXAEAVConnection@redis@sw@@AEBV?$basic_string_view@DU?$char_traits@D@std@@@std@@1_NW4UpdateType@23@@ZAEBV45@AEBV45@AEA_NAEAW4623@@Redis@redis@sw@@QEAA?AV?$unique_ptr@UredisReply@@UReplyDeleter@redis@sw@@@std@@P6AXAEAVConnection@12@AEBV?$basic_string_view@DU?$char_traits@D@std@@@4@1_NW4UpdateType@12@@Z11AEA_NAEAW4712@@Z
	??$command@P6AXAEAVConnection@redis@sw@@AEBV?$basic_string_view@DU?$char_traits@D@std@@@std@@1_NW4UpdateType@23@@ZAEBV45@AEBV45@AEA_NAEAW4623@@RedisCluster@redis@sw@@QEAA?AV?$unique_ptr@UredisReply@@UReplyDeleter@redis@sw@@@std@@P6AXAEAVConnection@12@AEBV?$basic_string_view@DU?$char_traits@D@std@@@4@1_NW4UpdateType@12@@Z11AEA_NAEAW4712@@Z
	??$command@P6AXAEAVConnection@redis@sw@@AEBV?$basic_string_view@DU?$char_traits@D@std@@@std@@1_NW4XtrimStrategy@23@@ZAEBV45@AEBV45@AEA_NAEAW4623@@Redis@redis@sw@@QEAA?AV?$unique_ptr@UredisReply@@UReplyDeleter@redis@sw@@@std@@P6AXAEAVConnection@12@AEBV?$basic_string_view@DU?$char_traits@D@std@@@4@1_NW4XtrimStrategy@12@@Z11AEA_NAEAW4712@@Z
	??$command@P6AXAEAVConnection@redis@sw@@AEBV?$basic_string_view@DU?$char_traits@D@std@@@std@@1_NW4XtrimStrategy@23@@ZAEBV45@AEBV45@AEA_NAEAW4623@@RedisCluster@redis@sw@@QEAA?AV?$unique_ptr@UredisReply@@UReplyDeleter@redis@sw@@@std@@P6AXAEAVConnection@12@AEBV?$basic_string_view@DU?$char_traits@D@std@@@4@1_NW4XtrimStrategy@12@@Z11AEA_NAEAW4712@@Z
	??$command@P6AXAEAVConnection@redis@sw@@AEBV?$basic_string_view@DU?$char_traits@D@std@@@std@@@ZAEBV45@$$V@RedisCluster@redis@sw@@QEAA?AV?$unique_ptr@UredisReply@@UReplyDeleter@redis@sw@@@std@@P6AXAEAVConnection@12@AEBV?$basic_string_view@DU?$char_traits@D@std@@@4@@Z1@Z
	??$command@P6AXAEAVConnection@redis@sw@@AEBV?$basic_string_view@DU?$char_traits@D@std@@@std@@@ZAEBV45@@?$QueuedRedis@VTransactionImpl@redis@sw@@@redis@sw@@QEAAAEAV012@P6AXAEAVConnection@12@AEBV?$basic_string_view@DU?$char_traits@D@std@@@std@@@Z1@Z
	??$command@P6AXAEAVConnection@redis@sw@@AEBV?$basic_string_view@DU?$char_traits@D@std@@@std@@@ZAEBV45@@Redis@redis@sw@@QEAA?AV?$unique_ptr@UredisReply@@UReplyDeleter@redis@sw@@@std@@P6AXAEAVConnection@12@AEBV?$basic_string_view@DU?$char_traits@D@std@@@4@@Z1@Z
	??$command@P6AXAEAVConnection@redis@sw@@AEBV?$basic_string_view@DU?$char_traits@D@std@@@std@@@ZAEBV45@@TransactionImpl@redis@sw@@QEAAXAEAVConnection@12@P6AX0AEBV?$basic_string_view@DU?$char_traits@D@std@@@std@@@Z1@Z
	??$command@P6AXAEAVConnection@redis@sw@@AEBV?$basic_string_view@DU?$char_traits@D@std@@@std@@AEBU?$pair@NN@5@NW4GeoUnit@23@1_N_J@ZAEBV45@AEBU65@AEANAEAW4723@AEBV45@AEA_NAEA_J@Redis@redis@sw@@QEAA?AV?$unique_ptr@UredisReply@@UReplyDeleter@redis@sw@@@std@@P6AXAEAVConnection@12@AEBV?$basic_string_view@DU?$char_traits@D@std@@@4@AEBU?$pair@NN@4@NW4GeoUnit@12@1_N_J@Z12AEANAEAW4812@1AEA_NAEA_J@Z
	??$command@P6AXAEAVConnection@redis@sw@@AEBV?$basic_string_view@DU?$char_traits@D@std@@@std@@AEBU?$pair@NN@5@NW4GeoUnit@23@1_N_J@ZAEBV45@AEBU65@AEANAEAW4723@AEBV45@AEA_NAEA_J@RedisCluster@redis@sw@@QEAA?AV?$unique_ptr@UredisReply@@UReplyDeleter@redis@sw@@@std@@P6AXAEAVConnection@12@AEBV?$basic_string_view@DU?$char_traits@D@std@@@4@AEBU?$pair@NN@4@NW4GeoUnit@12@1_N_J@Z12AEANAEAW4812@1AEA_NAEA_J@Z
	??$command@P6AXAEAVConnection@redis@sw@@AEBV?$basic_string_view@DU?$char_traits@D@std@@@std@@AEBV?$tuple@V?$basic_string_view@DU?$char_traits@D@std@@@std@@NN@5@@ZAEBV45@AEBV65@@Redis@redis@sw@@QEAA?AV?$unique_ptr@UredisReply@@UReplyDeleter@redis@sw@@@std@@P6AXAEAVConnection@12@AEBV?$basic_string_view@DU?$char_traits@D@std@@@4@AEBV?$tuple@V?$basic_string_view@DU?$char_traits@D@std@@@std@@NN@4@@Z12@Z
	??$command@P6AXAEAVConnection@redis@sw@@AEBV?$basic_string_view@DU?$char_traits@D@std@@@std@@AEBV?$tuple@V?$basic_string_view@DU?$char_traits@D@std@@@std@@NN@5@@ZAEBV45@AEBV65@@RedisCluster@redis@sw@@QEAA?AV?$unique_ptr@UredisReply@@UReplyDeleter@redis@sw@@@std@@P6AXAEAVConnection@12@AEBV?$basic_string_view@DU?$char_traits@D@std@@@4@AEBV?$tuple@V?$basic_string_view@DU?$char_traits@D@std@@@std@@NN@4@@Z12@Z
	??$command@P6AXAEAVConnection@redis@sw@@AEBV?$basic_string_view@DU?$char_traits@D@std@@@std@@N1@ZAEBV45@AEANAEBV45@@Redis@redis@sw@@QEAA?AV?$unique_ptr@UredisReply@@UReplyDeleter@redis@sw@@@std@@P6AXAEAVConnection@12@AEBV?$basic_string_view@DU?$char_traits@D@std@@@4@N1@Z1AEAN1@Z
	??$command@P6AXAEAVConnection@redis@sw@@AEBV?$basic_string_view@DU?$char_traits@D@std@@@std@@N1@ZAEBV45@AEANAEBV45@@RedisCluster@redis@sw@@QEAA?AV?$unique_ptr@UredisReply@@UReplyDeleter@redis@sw@@@std@@P6AXAEAVConnection@12@AEBV?$basic_string_view@DU?$char_traits@D@std@@@4@N1@Z1AEAN1@Z
	??$command@P6AXAEAVConnection@redis@sw@@AEBV?$basic_string_view@DU?$char_traits@D@std@@@std@@N@ZAEBV45@AEAN@Redis@redis@sw@@QEAA?AV?$unique_ptr@UredisReply@@UReplyDeleter@redis@sw@@@std@@P6AXAEAVConnection@12@AEBV?$basic_string_view@DU?$char_traits@D@std@@@4@N@Z1AEAN@Z
	??$command@P6AXAEAVConnection@redis@sw@@AEBV?$basic_string_view@DU?$char_traits@D@std@@@std@@N@ZAEBV45@AEAN@RedisCluster@redis@sw@@QEAA?AV?$unique_ptr@UredisReply@@UReplyDeleter@redis@sw@@@std@@P6AXAEAVConnection@12@AEBV?$basic_string_view@DU?$char_traits@D@std@@@4@N@Z1AEAN@Z
	??$command@P6AXAEAVConnection@redis@sw@@AEBV?$basic_string_view@DU?$char_traits@D@std@@@std@@PEBV45@222@ZAEBV45@AEAPEBV45@AEAPEBV45@AEAPEBV45@AEAPEBV45@@Redis@redis@sw@@QEAA?AV?$unique_ptr@UredisReply@@UReplyDeleter@redis@sw@@@std@@P6AXAEAVConnection@12@AEBV?$basic_string_view@DU?$char_traits@D@std@@@4@PEBV64@222@Z1AEAPEBV64@444@Z
	??$command@P6AXAEAVConnection@redis@sw@@AEBV?$basic_string_view@DU?$char_traits@D@std@@@std@@W4InsertPosition@23@11@ZAEBV45@AEAW4623@AEBV45@AEBV45@@Redis@redis@sw@@QEAA?AV?$unique_ptr@UredisReply@@UReplyDeleter@redis@sw@@@std@@P6AXAEAVConnection@12@AEBV?$basic_string_view@DU?$char_traits@D@std@@@4@W4InsertPosition@12@11@Z1AEAW4712@11@Z
	??$command@P6AXAEAVConnection@redis@sw@@AEBV?$basic_string_view@DU?$char_traits@D@std@@@std@@W4InsertPosition@23@11@ZAEBV45@AEAW4623@AEBV45@AEBV45@@RedisCluster@redis@sw@@QEAA?AV?$unique_ptr@UredisReply@@UReplyDeleter@redis@sw@@@std@@P6AXAEAVConnection@12@AEBV?$basic_string_view@DU?$char_traits@D@std@@@4@W4InsertPosition@12@11@Z1AEAW4712@11@Z
	??$command@P6AXAEAVConnection@redis@sw@@AEBV?$basic_string_view@DU?$char_traits@D@std@@@std@@_J1@ZAEBV45@AEA_JAEBV45@@Redis@redis@sw@@QEAA?AV?$unique_ptr@UredisReply@@UReplyDeleter@redis@sw@@@std@@P6AXAEAVConnection@12@AEBV?$basic_string_view@DU?$char_traits@D@std@@@4@_J1@Z1AEA_J1@Z
	??$command@P6AXAEAVConnection@redis@sw@@AEBV?$basic_string_view@DU?$char_traits@D@std@@@std@@_J1@ZAEBV45@AEA_JAEBV45@@RedisCluster@redis@sw@@QEAA?AV?$unique_ptr@UredisReply@@UReplyDeleter@redis@sw@@@std@@P6AXAEAVConnection@12@AEBV?$basic_string_view@DU?$char_traits@D@std@@@4@_J1@Z1AEA_J1@Z
	??$command@P6AXAEAVConnection@redis@sw@@AEBV?$basic_string_view@DU?$char_traits@D@std@@@std@@_J22@ZAEBV45@AEA_JAEA_JAEA_J@Redis@redis@sw@@QEAA?AV?$unique_ptr@UredisReply@@UReplyDeleter@redis@sw@@@std@@P6AXAEAVConnection@12@AEBV?$basic_string_view@DU?$char_traits@D@std@@@4@_J22@Z1AEA_J44@Z
	??$command@P6AXAEAVConnection@redis@sw@@AEBV?$basic_string_view@DU?$char_traits@D@std@@@std@@_J22@ZAEBV45@AEA_JAEA_JAEA_J@RedisCluster@redis@sw@@QEAA?AV?$unique_ptr@UredisReply@@UReplyDeleter@redis@sw@@@std@@P6AXAEAVConnection@12@AEBV?$basic_string_view@DU?$char_traits@D@std@@@4@_J22@Z1AEA_J44@Z
	??$command@P6AXAEAVConnection@redis@sw@@AEBV?$basic_string_view@DU?$char_traits@D@std@@@std@@_J2@ZAEBV45@AEA_JAEA_J@Redis@redis@sw@@QEAA?AV?$unique_ptr@UredisReply@@UReplyDeleter@redis@sw@@@std@@P6AXAEAVConnection@12@AEBV?$basic_string_view@DU?$char_traits@D@std@@@4@_J2@Z1AEA_J4@Z
	??$command@P6AXAEAVConnection@redis@sw@@AEBV?$basic_string_view@DU?$char_traits@D@std@@@std@@_J2@ZAEBV45@AEA_JAEA_J@RedisCluster@redis@sw@@QEAA?AV?$unique_ptr@UredisReply@@UReplyDeleter@redis@sw@@@std@@P6AXAEAVConnection@12@AEBV?$basic_string_view@DU?$char_traits@D@std@@@4@_J2@Z1AEA_J4@Z
	??$command@P6AXAEAVConnection@redis@sw@@AEBV?$basic_string_view@DU?$char_traits@D@std@@@std@@_J@ZAEBV45@AEA_J@?$QueuedRedis@VTransactionImpl@redis@sw@@@redis@sw@@QEAAAEAV012@P6AXAEAVConnection@12@AEBV?$basic_string_view@DU?$char_traits@D@std@@@std@@_J@Z1AEA_J@Z
	??$command@P6AXAEAVConnection@redis@sw@@AEBV?$basic_string_view@DU?$char_traits@D@std@@@std@@_J@ZAEBV45@AEA_J@Redis@redis@sw@@QEAA?AV?$unique_ptr@UredisReply@@UReplyDeleter@redis@sw@@@std@@P6AXAEAVConnection@12@AEBV?$basic_string_view@DU?$char_traits@D@std@@@4@_J@Z1AEA_J@Z
	??$command@P6AXAEAVConnection@redis@sw@@AEBV?$basic_string_view@DU?$char_traits@D@std@@@std@@_J@ZAEBV45@AEA_J@RedisCluster@redis@sw@@QEAA?AV?$unique_ptr@UredisReply@@UReplyDeleter@redis@sw@@@std@@P6AXAEAVConnection@12@AEBV?$basic_string_view@DU?$char_traits@D@std@@@4@_J@Z1AEA_J@Z
	??$command@P6AXAEAVConnection@redis@sw@@AEBV?$basic_string_view@DU?$char_traits@D@std@@@std@@_J@ZAEBV45@AEA_J@TransactionImpl@redis@sw@@QEAAXAEAVConnection@12@P6AX0AEBV?$basic_string_view@DU?$char_traits@D@std@@@std@@_J@Z1AEA_J@Z
	??$command@P6AXAEAVConnection@redis@sw@@AEBV?$basic_string_view@DU?$char_traits@D@std@@@std@@_J@ZAEBV45@H@Redis@redis@sw@@QEAA?AV?$unique_ptr@UredisReply@@UReplyDeleter@redis@sw@@@std@@P6AXAEAVConnection@12@AEBV?$basic_string_view@DU?$char_traits@D@std@@@4@_J@Z1$$QEAH@Z
	??$command@P6AXAEAVConnection@redis@sw@@AEBV?$basic_string_view@DU?$char_traits@D@std@@@std@@_J@ZAEBV45@H@RedisCluster@redis@sw@@QEAA?AV?$unique_ptr@UredisReply@@UReplyDeleter@redis@sw@@@std@@P6AXAEAVConnection@12@AEBV?$basic_string_view@DU?$char_traits@D@std@@@4@_J@Z1$$QEAH@Z
	??$command@P6AXAEAVConnection@redis@sw@@AEBV?$basic_string_view@DU?$char_traits@D@std@@@std@@_JW4XtrimStrategy@23@2@ZAEBV45@AEA_JAEAW4623@AEA_J@Redis@redis@sw@@QEAA?AV?$unique_ptr@UredisReply@@UReplyDeleter@redis@sw@@@std@@P6AXAEAVConnection@12@AEBV?$basic_string_view@DU?$char_traits@D@std@@@4@_JW4XtrimStrategy@12@2@Z1AEA_JAEAW4712@5@Z
	??$command@P6AXAEAVConnection@redis@sw@@AEBV?$basic_string_view@DU?$char_traits@D@std@@@std@@_JW4XtrimStrategy@23@2@ZAEBV45@AEA_JAEAW4623@AEA_J@RedisCluster@redis@sw@@QEAA?AV?$unique_ptr@UredisReply@@UReplyDeleter@redis@sw@@@std@@P6AXAEAVConnection@12@AEBV?$basic_string_view@DU?$char_traits@D@std@@@4@_JW4XtrimStrategy@12@2@Z1AEA_JAEAW4712@5@Z
	??$command@P6AXAEAVConnection@redis@sw@@AEBV?$basic_string_view@DU?$char_traits@D@std@@@std@@_J_NW4XtrimStrategy@23@@ZAEBV45@AEA_JAEA_NAEAW4623@@Redis@redis@sw@@QEAA?AV?$unique_ptr@UredisReply@@UReplyDeleter@redis@sw@@@std@@P6AXAEAVConnection@12@AEBV?$basic_string_view@DU?$char_traits@D@std@@@4@_J_NW4XtrimStrategy@12@@Z1AEA_JAEA_NAEAW4712@@Z
	??$command@P6AXAEAVConnection@redis@sw@@AEBV?$basic_string_view@DU?$char_traits@D@std@@@std@@_J_NW4XtrimStrategy@23@@ZAEBV45@AEA_JAEA_NAEAW4623@@RedisCluster@redis@sw@@QEAA?AV?$unique_ptr@UredisReply@@UReplyDeleter@redis@sw@@@std@@P6AXAEAVConnection@12@AEBV?$basic_string_view@DU?$char_traits@D@std@@@4@_J_NW4XtrimStrategy@12@@Z1AEA_JAEA_NAEAW4712@@Z
	??$command@P6AXAEAVConnection@redis@sw@@W4BitOp@23@AEBV?$basic_string_view@DU?$char_traits@D@std@@@std@@2@ZAEAW4423@AEBV56@AEBV56@@Redis@redis@sw@@QEAA?AV?$unique_ptr@UredisReply@@UReplyDeleter@redis@sw@@@std@@P6AXAEAVConnection@12@W4BitOp@12@AEBV?$basic_string_view@DU?$char_traits@D@std@@@4@2@ZAEAW4612@22@Z
	??$command@P6AXAEAVConnection@redis@sw@@_J1@ZAEA_JAEA_J@Redis@redis@sw@@QEAA?AV?$unique_ptr@UredisReply@@UReplyDeleter@redis@sw@@@std@@P6AXAEAVConnection@12@_J1@ZAEA_J3@Z
	??$command@P6AXAEAVConnection@redis@sw@@_N@ZAEA_N@Redis@redis@sw@@QEAA?AV?$unique_ptr@UredisReply@@UReplyDeleter@redis@sw@@@std@@P6AXAEAVConnection@12@_N@ZAEA_N@Z
	??$destroy@U?$pair@$$CBUNode@redis@sw@@V?$shared_ptr@VConnectionPool@redis@sw@@@std@@@std@@@?$_Default_allocator_traits@V?$allocator@U?$_List_node@U?$pair@$$CBUNode@redis@sw@@V?$shared_ptr@VConnectionPool@redis@sw@@@std@@@std@@PEAX@std@@@std@@@std@@SAXAEAV?$allocator@U?$_List_node@U?$pair@$$CBUNode@redis@sw@@V?$shared_ptr@VConnectionPool@redis@sw@@@std@@@std@@PEAX@std@@@1@QEAU?$pair@$$CBUNode@redis@sw@@V?$shared_ptr@VConnectionPool@redis@sw@@@std@@@1@@Z
	??$emplace@AEBUNode@redis@sw@@@?$_Hash@V?$_Uset_traits@UNode@redis@sw@@V?$_Uhash_compare@UNode@redis@sw@@UNodeHash@23@U?$equal_to@UNode@redis@sw@@@std@@@std@@V?$allocator@UNode@redis@sw@@@5@$0A@@std@@@std@@QEAA?AU?$pair@V?$_List_const_iterator@V?$_List_val@U?$_List_simple_types@UNode@redis@sw@@@std@@@std@@@std@@_N@1@AEBUNode@redis@sw@@@Z
	??$emplace@AEBUNode@redis@sw@@V?$shared_ptr@VConnectionPool@redis@sw@@@std@@@?$_Hash@V?$_Umap_traits@UNode@redis@sw@@V?$shared_ptr@VConnectionPool@redis@sw@@@std@@V?$_Uhash_compare@UNode@redis@sw@@UNodeHash@23@U?$equal_to@UNode@redis@sw@@@std@@@5@V?$allocator@U?$pair@$$CBUNode@redis@sw@@V?$shared_ptr@VConnectionPool@redis@sw@@@std@@@std@@@5@$0A@@std@@@std@@QEAA?AU?$pair@V?$_List_iterator@V?$_List_val@U?$_List_simple_types@U?$pair@$$CBUNode@redis@sw@@V?$shared_ptr@VConnectionPool@redis@sw@@@std@@@std@@@std@@@std@@@std@@_N@1@AEBUNode@redis@sw@@$$QEAV?$shared_ptr@VConnectionPool@redis@sw@@@1@@Z
	??$emplace_hint@U?$pair@$$CBV?$basic_string@DU?$char_traits@D@std@@V?$allocator@D@2@@std@@V12@@std@@@?$_Hash@V?$_Umap_traits@V?$basic_string@DU?$char_traits@D@std@@V?$allocator@D@2@@std@@V12@V?$_Uhash_compare@V?$basic_string@DU?$char_traits@D@std@@V?$allocator@D@2@@std@@U?$hash@V?$basic_string@DU?$char_traits@D@std@@V?$allocator@D@2@@std@@@2@U?$equal_to@V?$basic_string@DU?$char_traits@D@std@@V?$allocator@D@2@@std@@@2@@2@V?$allocator@U?$pair@$$CBV?$basic_string@DU?$char_traits@D@std@@V?$allocator@D@2@@std@@V12@@std@@@2@$0A@@std@@@std@@QEAA?AV?$_List_iterator@V?$_List_val@U?$_List_simple_types@U?$pair@$$CBV?$basic_string@DU?$char_traits@D@std@@V?$allocator@D@2@@std@@V12@@std@@@std@@@std@@@1@V?$_List_const_iterator@V?$_List_val@U?$_List_simple_types@U?$pair@$$CBV?$basic_string@DU?$char_traits@D@std@@V?$allocator@D@2@@std@@V12@@std@@@std@@@std@@@1@$$QEAU?$pair@$$CBV?$basic_string@DU?$char_traits@D@std@@V?$allocator@D@2@@std@@V12@@1@@Z
	??$erase@V?$_List_iterator@V?$_List_val@U?$_List_simple_types@U?$pair@$$CBUNode@redis@sw@@V?$shared_ptr@VConnectionPool@redis@sw@@@std@@@std@@@std@@@std@@@std@@$0A@@?$_Hash@V?$_Umap_traits@UNode@redis@sw@@V?$shared_ptr@VConnectionPool@redis@sw@@@std@@V?$_Uhash_compare@UNode@redis@sw@@UNodeHash@23@U?$equal_to@UNode@redis@sw@@@std@@@5@V?$allocator@U?$pair@$$CBUNode@redis@sw@@V?$shared_ptr@VConnectionPool@redis@sw@@@std@@@std@@@5@$0A@@std@@@std@@QEAA?AV?$_List_iterator@V?$_List_val@U?$_List_simple_types@U?$pair@$$CBUNode@redis@sw@@V?$shared_ptr@VConnectionPool@redis@sw@@@std@@@std@@@std@@@std@@@1@V21@@Z
	??$eval@PEBV?$basic_string_view@DU?$char_traits@D@std@@@std@@PEBV12@@cmd@redis@sw@@YAXAEAVConnection@12@AEBV?$basic_string_view@DU?$char_traits@D@std@@@std@@PEBV45@222@Z
	??$eval@_J@Redis@redis@sw@@QEAA_JAEBV?$basic_string_view@DU?$char_traits@D@std@@@std@@V?$initializer_list@V?$basic_string_view@DU?$char_traits@D@std@@@std@@@4@1@Z
	??$eval@_JPEBV?$basic_string_view@DU?$char_traits@D@std@@@std@@PEBV12@@Redis@redis@sw@@QEAA_JAEBV?$basic_string_view@DU?$char_traits@D@std@@@std@@PEBV34@111@Z
	??$fill@PEAV?$_List_unchecked_const_iterator@V?$_List_val@U?$_List_simple_types@UNode@redis@sw@@@std@@@std@@U_Iterator_base0@2@@std@@V12@@std@@YAXQEAV?$_List_unchecked_const_iterator@V?$_List_val@U?$_List_simple_types@UNode@redis@sw@@@std@@@std@@U_Iterator_base0@2@@0@0AEBV10@@Z
	??$fill@PEAV?$_List_unchecked_const_iterator@V?$_List_val@U?$_List_simple_types@_K@std@@@std@@U_Iterator_base0@2@@std@@V12@@std@@YAXQEAV?$_List_unchecked_const_iterator@V?$_List_val@U?$_List_simple_types@_K@std@@@std@@U_Iterator_base0@2@@0@0AEBV10@@Z
	??$fill@PEAV?$_List_unchecked_iterator@V?$_List_val@U?$_List_simple_types@U?$pair@$$CBUNode@redis@sw@@V?$shared_ptr@VConnectionPool@redis@sw@@@std@@@std@@@std@@@std@@@std@@V12@@std@@YAXQEAV?$_List_unchecked_iterator@V?$_List_val@U?$_List_simple_types@U?$pair@$$CBUNode@redis@sw@@V?$shared_ptr@VConnectionPool@redis@sw@@@std@@@std@@@std@@@std@@@0@0AEBV10@@Z
	??$fill@PEAV?$_List_unchecked_iterator@V?$_List_val@U?$_List_simple_types@U?$pair@$$CBV?$basic_string@DU?$char_traits@D@std@@V?$allocator@D@2@@std@@V12@@std@@@std@@@std@@@std@@V12@@std@@YAXQEAV?$_List_unchecked_iterator@V?$_List_val@U?$_List_simple_types@U?$pair@$$CBV?$basic_string@DU?$char_traits@D@std@@V?$allocator@D@2@@std@@V12@@std@@@std@@@std@@@0@0AEBV10@@Z
	??$fill@PEAV?$_List_unchecked_iterator@V?$_List_val@U?$_List_simple_types@U?$pair@$$CBV?$basic_string@DU?$char_traits@D@std@@V?$allocator@D@2@@std@@W4ReplyErrorType@redis@sw@@@std@@@std@@@std@@@std@@V12@@std@@YAXQEAV?$_List_unchecked_iterator@V?$_List_val@U?$_List_simple_types@U?$pair@$$CBV?$basic_string@DU?$char_traits@D@std@@V?$allocator@D@2@@std@@W4ReplyErrorType@redis@sw@@@std@@@std@@@std@@@0@0AEBV10@@Z
	??$insert@PEBU?$pair@$$CBV?$basic_string@DU?$char_traits@D@std@@V?$allocator@D@2@@std@@W4ReplyErrorType@redis@sw@@@std@@@?$_Hash@V?$_Umap_traits@V?$basic_string@DU?$char_traits@D@std@@V?$allocator@D@2@@std@@W4ReplyErrorType@redis@sw@@V?$_Uhash_compare@V?$basic_string@DU?$char_traits@D@std@@V?$allocator@D@2@@std@@U?$hash@V?$basic_string@DU?$char_traits@D@std@@V?$allocator@D@2@@std@@@2@U?$equal_to@V?$basic_string@DU?$char_traits@D@std@@V?$allocator@D@2@@std@@@2@@2@V?$allocator@U?$pair@$$CBV?$basic_string@DU?$char_traits@D@std@@V?$allocator@D@2@@std@@W4ReplyErrorType@redis@sw@@@std@@@2@$0A@@std@@@std@@QEAAXPEBU?$pair@$$CBV?$basic_string@DU?$char_traits@D@std@@V?$allocator@D@2@@std@@W4ReplyErrorType@redis@sw@@@1@0@Z
	??$insert@V?$_List_unchecked_const_iterator@V?$_List_val@U?$_List_simple_types@U?$pair@$$CBV?$basic_string@DU?$char_traits@D@std@@V?$allocator@D@2@@std@@V12@@std@@@std@@@std@@U_Iterator_base0@2@@std@@@?$_Hash@V?$_Umap_traits@V?$basic_string@DU?$char_traits@D@std@@V?$allocator@D@2@@std@@V12@V?$_Uhash_compare@V?$basic_string@DU?$char_traits@D@std@@V?$allocator@D@2@@std@@U?$hash@V?$basic_string@DU?$char_traits@D@std@@V?$allocator@D@2@@std@@@2@U?$equal_to@V?$basic_string@DU?$char_traits@D@std@@V?$allocator@D@2@@std@@@2@@2@V?$allocator@U?$pair@$$CBV?$basic_string@DU?$char_traits@D@std@@V?$allocator@D@2@@std@@V12@@std@@@2@$0A@@std@@@std@@QEAAXV?$_List_unchecked_const_iterator@V?$_List_val@U?$_List_simple_types@U?$pair@$$CBV?$basic_string@DU?$char_traits@D@std@@V?$allocator@D@2@@std@@V12@@std@@@std@@@std@@U_Iterator_base0@2@@1@0@Z
	??$lock@Vmutex@std@@V12@$$V@std@@YAXAEAVmutex@0@0@Z
	??$move@AEAVConnection@redis@sw@@@std@@YA$$QEAVConnection@redis@sw@@AEAV123@@Z
	??$parse@$$CBV?$basic_string@DU?$char_traits@D@std@@V?$allocator@D@2@@std@@V12@@reply@redis@sw@@YA?AU?$pair@$$CBV?$basic_string@DU?$char_traits@D@std@@V?$allocator@D@2@@std@@V12@@std@@U?$ParseTag@U?$pair@$$CBV?$basic_string@DU?$char_traits@D@std@@V?$allocator@D@2@@std@@V12@@std@@@012@AEAUredisReply@@@Z
	??$parse@N@reply@redis@sw@@YA?AV?$optional@N@std@@U?$ParseTag@V?$optional@N@std@@@012@AEAUredisReply@@@Z
	??$parse@NN@reply@redis@sw@@YA?AU?$pair@NN@std@@U?$ParseTag@U?$pair@NN@std@@@012@AEAUredisReply@@@Z
	??$parse@U?$pair@NN@std@@@reply@redis@sw@@YA?AV?$optional@U?$pair@NN@std@@@std@@U?$ParseTag@V?$optional@U?$pair@NN@std@@@std@@@012@AEAUredisReply@@@Z
	??$parse@U?$pair@V?$basic_string@DU?$char_traits@D@std@@V?$allocator@D@2@@std@@N@std@@@reply@redis@sw@@YA?AV?$optional@U?$pair@V?$basic_string@DU?$char_traits@D@std@@V?$allocator@D@2@@std@@N@std@@@std@@U?$ParseTag@V?$optional@U?$pair@V?$basic_string@DU?$char_traits@D@std@@V?$allocator@D@2@@std@@N@std@@@std@@@012@AEAUredisReply@@@Z
	??$parse@U?$pair@V?$basic_string@DU?$char_traits@D@std@@V?$allocator@D@2@@std@@V12@@std@@@reply@redis@sw@@YA?AV?$optional@U?$pair@V?$basic_string@DU?$char_traits@D@std@@V?$allocator@D@2@@std@@V12@@std@@@std@@U?$ParseTag@V?$optional@U?$pair@V?$basic_string@DU?$char_traits@D@std@@V?$allocator@D@2@@std@@V12@@std@@@std@@@012@AEAUredisReply@@@Z
	??$parse@V?$basic_string@DU?$char_traits@D@std@@V?$allocator@D@2@@std@@@reply@redis@sw@@YA?AV?$optional@V?$basic_string@DU?$char_traits@D@std@@V?$allocator@D@2@@std@@@std@@U?$ParseTag@V?$optional@V?$basic_string@DU?$char_traits@D@std@@V?$allocator@D@2@@std@@@std@@@012@AEAUredisReply@@@Z
	??$parse@V?$basic_string@DU?$char_traits@D@std@@V?$allocator@D@2@@std@@N@reply@redis@sw@@YA?AU?$pair@V?$basic_string@DU?$char_traits@D@std@@V?$allocator@D@2@@std@@N@std@@U?$ParseTag@U?$pair@V?$basic_string@DU?$char_traits@D@std@@V?$allocator@D@2@@std@@N@std@@@012@AEAUredisReply@@@Z
	??$parse@V?$basic_string@DU?$char_traits@D@std@@V?$allocator@D@2@@std@@V12@@reply@redis@sw@@YA?AU?$pair@V?$basic_string@DU?$char_traits@D@std@@V?$allocator@D@2@@std@@V12@@std@@U?$ParseTag@U?$pair@V?$basic_string@DU?$char_traits@D@std@@V?$allocator@D@2@@std@@V12@@std@@@012@AEAUredisReply@@@Z
	??$parse@V?$basic_string@DU?$char_traits@D@std@@V?$allocator@D@2@@std@@V12@N@reply@redis@sw@@YA?AV?$tuple@V?$basic_string@DU?$char_traits@D@std@@V?$allocator@D@2@@std@@V12@N@std@@U?$ParseTag@V?$tuple@V?$basic_string@DU?$char_traits@D@std@@V?$allocator@D@2@@std@@V12@N@std@@@012@AEAUredisReply@@@Z
	??$parse@V?$optional@U?$pair@NN@std@@@std@@@reply@redis@sw@@YA?AV?$optional@U?$pair@NN@std@@@std@@AEAUredisReply@@@Z
	??$parse@V?$optional@U?$pair@V?$basic_string@DU?$char_traits@D@std@@V?$allocator@D@2@@std@@N@std@@@std@@@reply@redis@sw@@YA?AV?$optional@U?$pair@V?$basic_string@DU?$char_traits@D@std@@V?$allocator@D@2@@std@@N@std@@@std@@AEAUredisReply@@@Z
	??$parse@V?$optional@U?$pair@V?$basic_string@DU?$char_traits@D@std@@V?$allocator@D@2@@std@@V12@@std@@@std@@@reply@redis@sw@@YA?AV?$optional@U?$pair@V?$basic_string@DU?$char_traits@D@std@@V?$allocator@D@2@@std@@V12@@std@@@std@@AEAUredisReply@@@Z
	??$parse@V?$optional@V?$basic_string@DU?$char_traits@D@std@@V?$allocator@D@2@@std@@@std@@@reply@redis@sw@@YA?AV?$optional@V?$basic_string@DU?$char_traits@D@std@@V?$allocator@D@2@@std@@@std@@AEAUredisReply@@@Z
	??$parse@V?$optional@V?$tuple@V?$basic_string@DU?$char_traits@D@std@@V?$allocator@D@2@@std@@V12@N@std@@@std@@@reply@redis@sw@@YA?AV?$optional@V?$tuple@V?$basic_string@DU?$char_traits@D@std@@V?$allocator@D@2@@std@@V12@N@std@@@std@@AEAUredisReply@@@Z
	??$parse@V?$tuple@V?$basic_string@DU?$char_traits@D@std@@V?$allocator@D@2@@std@@V12@N@std@@@reply@redis@sw@@YA?AV?$optional@V?$tuple@V?$basic_string@DU?$char_traits@D@std@@V?$allocator@D@2@@std@@V12@N@std@@@std@@U?$ParseTag@V?$optional@V?$tuple@V?$basic_string@DU?$char_traits@D@std@@V?$allocator@D@2@@std@@V12@N@std@@@std@@@012@AEAUredisReply@@@Z
	??$parse@V?$unordered_map@V?$basic_string@DU?$char_traits@D@std@@V?$allocator@D@2@@std@@V12@U?$hash@V?$basic_string@DU?$char_traits@D@std@@V?$allocator@D@2@@std@@@2@U?$equal_to@V?$basic_string@DU?$char_traits@D@std@@V?$allocator@D@2@@std@@@2@V?$allocator@U?$pair@$$CBV?$basic_string@DU?$char_traits@D@std@@V?$allocator@D@2@@std@@V12@@std@@@2@@std@@$0A@@reply@redis@sw@@YA?AV?$unordered_map@V?$basic_string@DU?$char_traits@D@std@@V?$allocator@D@2@@std@@V12@U?$hash@V?$basic_string@DU?$char_traits@D@std@@V?$allocator@D@2@@std@@@2@U?$equal_to@V?$basic_string@DU?$char_traits@D@std@@V?$allocator@D@2@@std@@@2@V?$allocator@U?$pair@$$CBV?$basic_string@DU?$char_traits@D@std@@V?$allocator@D@2@@std@@V12@@std@@@2@@std@@U?$ParseTag@V?$unordered_map@V?$basic_string@DU?$char_traits@D@std@@V?$allocator@D@2@@std@@V12@U?$hash@V?$basic_string@DU?$char_traits@D@std@@V?$allocator@D@2@@std@@@2@U?$equal_to@V?$basic_string@DU?$char_traits@D@std@@V?$allocator@D@2@@std@@@2@V?$allocator@U?$pair@$$CBV?$basic_string@DU?$char_traits@D@std@@V?$allocator@D@2@@std@@V12@@std@@@2@@std@@@012@AEAUredisReply@@@Z
	??$parse@V?$vector@V?$unordered_map@V?$basic_string@DU?$char_traits@D@std@@V?$allocator@D@2@@std@@V12@U?$hash@V?$basic_string@DU?$char_traits@D@std@@V?$allocator@D@2@@std@@@2@U?$equal_to@V?$basic_string@DU?$char_traits@D@std@@V?$allocator@D@2@@std@@@2@V?$allocator@U?$pair@$$CBV?$basic_string@DU?$char_traits@D@std@@V?$allocator@D@2@@std@@V12@@std@@@2@@std@@V?$allocator@V?$unordered_map@V?$basic_string@DU?$char_traits@D@std@@V?$allocator@D@2@@std@@V12@U?$hash@V?$basic_string@DU?$char_traits@D@std@@V?$allocator@D@2@@std@@@2@U?$equal_to@V?$basic_string@DU?$char_traits@D@std@@V?$allocator@D@2@@std@@@2@V?$allocator@U?$pair@$$CBV?$basic_string@DU?$char_traits@D@std@@V?$allocator@D@2@@std@@V12@@std@@@2@@std@@@2@@std@@$0A@@reply@redis@sw@@YA?AV?$vector@V?$unordered_map@V?$basic_string@DU?$char_traits@D@std@@V?$allocator@D@2@@std@@V12@U?$hash@V?$basic_string@DU?$char_traits@D@std@@V?$allocator@D@2@@std@@@2@U?$equal_to@V?$basic_string@DU?$char_traits@D@std@@V?$allocator@D@2@@std@@@2@V?$allocator@U?$pair@$$CBV?$basic_string@DU?$char_traits@D@std@@V?$allocator@D@2@@std@@V12@@std@@@2@@std@@V?$allocator@V?$unordered_map@V?$basic_string@DU?$char_traits@D@std@@V?$allocator@D@2@@std@@V12@U?$hash@V?$basic_string@DU?$char_traits@D@std@@V?$allocator@D@2@@std@@@2@U?$equal_to@V?$basic_string@DU?$char_traits@D@std@@V?$allocator@D@2@@std@@@2@V?$allocator@U?$pair@$$CBV?$basic_string@DU?$char_traits@D@std@@V?$allocator@D@2@@std@@V12@@std@@@2@@std@@@2@@std@@U?$ParseTag@V?$vector@V?$unordered_map@V?$basic_string@DU?$char_traits@D@std@@V?$allocator@D@2@@std@@V12@U?$hash@V?$basic_string@DU?$char_traits@D@std@@V?$allocator@D@2@@std@@@2@U?$equal_to@V?$basic_string@DU?$char_traits@D@std@@V?$allocator@D@2@@std@@@2@V?$allocator@U?$pair@$$CBV?$basic_string@DU?$char_traits@D@std@@V?$allocator@D@2@@std@@V12@@std@@@2@@std@@V?$allocator@V?$unordered_map@V?$basic_string@DU?$char_traits@D@std@@V?$allocator@D@2@@std@@V12@U?$hash@V?$basic_string@DU?$char_traits@D@std@@V?$allocator@D@2@@std@@@2@U?$equal_to@V?$basic_string@DU?$char_traits@D@std@@V?$allocator@D@2@@std@@@2@V?$allocator@U?$pair@$$CBV?$basic_string@DU?$char_traits@D@std@@V?$allocator@D@2@@std@@V12@@std@@@2@@std@@@2@@std@@@012@AEAUredisReply@@@Z
	??$parse@X@reply@redis@sw@@YAXAEAUredisReply@@@Z
	??$parse@_J@reply@redis@sw@@YA?AV?$optional@_J@std@@U?$ParseTag@V?$optional@_J@std@@@012@AEAUredisReply@@@Z
	??$parse_leniently@V?$optional@U?$pair@NN@std@@@std@@@reply@redis@sw@@YA?AV?$optional@U?$pair@NN@std@@@std@@AEAUredisReply@@@Z
	??$parse_leniently@V?$optional@V?$basic_string@DU?$char_traits@D@std@@V?$allocator@D@2@@std@@@std@@@reply@redis@sw@@YA?AV?$optional@V?$basic_string@DU?$char_traits@D@std@@V?$allocator@D@2@@std@@@std@@AEAUredisReply@@@Z
	??$parse_leniently@_N@reply@redis@sw@@YA_NAEAUredisReply@@@Z
	??$parse_tuple@N@detail@reply@redis@sw@@YA?AV?$tuple@N@std@@PEAPEAUredisReply@@_K@Z
	??$parse_tuple@V?$basic_string@DU?$char_traits@D@std@@V?$allocator@D@2@@std@@@detail@reply@redis@sw@@YA?AV?$tuple@V?$basic_string@DU?$char_traits@D@std@@V?$allocator@D@2@@std@@@std@@PEAPEAUredisReply@@_K@Z
	??$parse_tuple@V?$basic_string@DU?$char_traits@D@std@@V?$allocator@D@2@@std@@N@detail@reply@redis@sw@@YA?AV?$tuple@V?$basic_string@DU?$char_traits@D@std@@V?$allocator@D@2@@std@@N@std@@PEAPEAUredisReply@@_K@Z
	??$parse_tuple@V?$basic_string@DU?$char_traits@D@std@@V?$allocator@D@2@@std@@V12@N@detail@reply@redis@sw@@YA?AV?$tuple@V?$basic_string@DU?$char_traits@D@std@@V?$allocator@D@2@@std@@V12@N@std@@PEAPEAUredisReply@@_K@Z
	??$send@$$V@Connection@redis@sw@@QEAAXPEBD@Z
	??$send@AEA_J@Connection@redis@sw@@QEAAXPEBDAEA_J@Z
	??$send@AEA_JAEA_J@Connection@redis@sw@@QEAAXPEBDAEA_J1@Z
	??$send@PEBD_K@Connection@redis@sw@@QEAAXPEBD$$QEAPEBD$$QEA_K@Z
	??$send@PEBD_KAEAN@Connection@redis@sw@@QEAAXPEBD$$QEAPEBD$$QEA_KAEAN@Z
	??$send@PEBD_KAEANPEBD_K@Connection@redis@sw@@QEAAXPEBD$$QEAPEBD$$QEA_KAEAN12@Z
	??$send@PEBD_KAEA_J@Connection@redis@sw@@QEAAXPEBD$$QEAPEBD$$QEA_KAEA_J@Z
	??$send@PEBD_KAEA_JAEA_J@Connection@redis@sw@@QEAAXPEBD$$QEAPEBD$$QEA_KAEA_J3@Z
	??$send@PEBD_KAEA_JAEA_JAEA_J@Connection@redis@sw@@QEAAXPEBD$$QEAPEBD$$QEA_KAEA_J33@Z
	??$send@PEBD_KAEA_JPEBD_K@Connection@redis@sw@@QEAAXPEBD$$QEAPEBD$$QEA_KAEA_J12@Z
	??$send@PEBD_KAEBNAEBNPEBD_K@Connection@redis@sw@@QEAAXPEBD$$QEAPEBD$$QEA_KAEBN312@Z
	??$send@PEBD_KPEBDPEBD_KPEBD_K@Connection@redis@sw@@QEAAXPEBD$$QEAPEBD$$QEA_K11212@Z
	??$send@PEBD_KPEBD_K@Connection@redis@sw@@QEAAXPEBD$$QEAPEBD$$QEA_K12@Z
	??$send@PEBD_KPEBD_KAEAN@Connection@redis@sw@@QEAAXPEBD$$QEAPEBD$$QEA_K12AEAN@Z
	??$send@PEBD_KPEBD_KAEA_J@Connection@redis@sw@@QEAAXPEBD$$QEAPEBD$$QEA_K12AEA_J@Z
	??$send@PEBD_KPEBD_KPEBD_K@Connection@redis@sw@@QEAAXPEBD$$QEAPEBD$$QEA_K1212@Z
	??$shuffle@V?$_Vector_iterator@V?$_Vector_val@U?$_Simple_types@UNode@redis@sw@@@std@@@std@@@std@@AEAV?$mersenne_twister_engine@I$0CA@$0CHA@$0BIN@$0BP@$0JJAILANP@$0L@$0PPPPPPPP@$06$0JNCMFGIA@$0P@$0OPMGAAAA@$0BC@$0GMAHIJGF@@2@@std@@YAXV?$_Vector_iterator@V?$_Vector_val@U?$_Simple_types@UNode@redis@sw@@@std@@@std@@@0@0AEAV?$mersenne_twister_engine@I$0CA@$0CHA@$0BIN@$0BP@$0JJAILANP@$0L@$0PPPPPPPP@$06$0JNCMFGIA@$0P@$0OPMGAAAA@$0BC@$0GMAHIJGF@@0@@Z
	??$sleep_for@_JU?$ratio@$00$0DOI@@std@@@this_thread@std@@YAXAEBV?$duration@_JU?$ratio@$00$0DOI@@std@@@chrono@1@@Z
	??$sleep_until@Usteady_clock@chrono@std@@V?$duration@_JU?$ratio@$00$0DLJKMKAA@@std@@@23@@this_thread@std@@YAXAEBV?$time_point@Usteady_clock@chrono@std@@V?$duration@_JU?$ratio@$00$0DLJKMKAA@@std@@@23@@chrono@1@@Z
	??$swap@UNode@redis@sw@@$0A@@std@@YAXAEAUNode@redis@sw@@0@Z
	??$swap@UredisContext@@UContextDeleter@Connection@redis@sw@@$0A@@std@@YAXAEAV?$unique_ptr@UredisContext@@UContextDeleter@Connection@redis@sw@@@0@0@Z
	??$to_array@V?$back_insert_iterator@V?$vector@V?$unordered_map@V?$basic_string@DU?$char_traits@D@std@@V?$allocator@D@2@@std@@V12@U?$hash@V?$basic_string@DU?$char_traits@D@std@@V?$allocator@D@2@@std@@@2@U?$equal_to@V?$basic_string@DU?$char_traits@D@std@@V?$allocator@D@2@@std@@@2@V?$allocator@U?$pair@$$CBV?$basic_string@DU?$char_traits@D@std@@V?$allocator@D@2@@std@@V12@@std@@@2@@std@@V?$allocator@V?$unordered_map@V?$basic_string@DU?$char_traits@D@std@@V?$allocator@D@2@@std@@V12@U?$hash@V?$basic_string@DU?$char_traits@D@std@@V?$allocator@D@2@@std@@@2@U?$equal_to@V?$basic_string@DU?$char_traits@D@std@@V?$allocator@D@2@@std@@@2@V?$allocator@U?$pair@$$CBV?$basic_string@DU?$char_traits@D@std@@V?$allocator@D@2@@std@@V12@@std@@@2@@std@@@2@@std@@@std@@@detail@reply@redis@sw@@YAXAEAUredisReply@@V?$back_insert_iterator@V?$vector@V?$unordered_map@V?$basic_string@DU?$char_traits@D@std@@V?$allocator@D@2@@std@@V12@U?$hash@V?$basic_string@DU?$char_traits@D@std@@V?$allocator@D@2@@std@@@2@U?$equal_to@V?$basic_string@DU?$char_traits@D@std@@V?$allocator@D@2@@std@@@2@V?$allocator@U?$pair@$$CBV?$basic_string@DU?$char_traits@D@std@@V?$allocator@D@2@@std@@V12@@std@@@2@@std@@V?$allocator@V?$unordered_map@V?$basic_string@DU?$char_traits@D@std@@V?$allocator@D@2@@std@@V12@U?$hash@V?$basic_string@DU?$char_traits@D@std@@V?$allocator@D@2@@std@@@2@U?$equal_to@V?$basic_string@DU?$char_traits@D@std@@V?$allocator@D@2@@std@@@2@V?$allocator@U?$pair@$$CBV?$basic_string@DU?$char_traits@D@std@@V?$allocator@D@2@@std@@V12@@std@@@2@@std@@@2@@std@@@std@@@Z
	??$to_array@V?$back_insert_iterator@V?$vector@V?$unordered_map@V?$basic_string@DU?$char_traits@D@std@@V?$allocator@D@2@@std@@V12@U?$hash@V?$basic_string@DU?$char_traits@D@std@@V?$allocator@D@2@@std@@@2@U?$equal_to@V?$basic_string@DU?$char_traits@D@std@@V?$allocator@D@2@@std@@@2@V?$allocator@U?$pair@$$CBV?$basic_string@DU?$char_traits@D@std@@V?$allocator@D@2@@std@@V12@@std@@@2@@std@@V?$allocator@V?$unordered_map@V?$basic_string@DU?$char_traits@D@std@@V?$allocator@D@2@@std@@V12@U?$hash@V?$basic_string@DU?$char_traits@D@std@@V?$allocator@D@2@@std@@@2@U?$equal_to@V?$basic_string@DU?$char_traits@D@std@@V?$allocator@D@2@@std@@@2@V?$allocator@U?$pair@$$CBV?$basic_string@DU?$char_traits@D@std@@V?$allocator@D@2@@std@@V12@@std@@@2@@std@@@2@@std@@@std@@@detail@reply@redis@sw@@YAXU?$integral_constant@_N$0A@@std@@AEAUredisReply@@V?$back_insert_iterator@V?$vector@V?$unordered_map@V?$basic_string@DU?$char_traits@D@std@@V?$allocator@D@2@@std@@V12@U?$hash@V?$basic_string@DU?$char_traits@D@std@@V?$allocator@D@2@@std@@@2@U?$equal_to@V?$basic_string@DU?$char_traits@D@std@@V?$allocator@D@2@@std@@@2@V?$allocator@U?$pair@$$CBV?$basic_string@DU?$char_traits@D@std@@V?$allocator@D@2@@std@@V12@@std@@@2@@std@@V?$allocator@V?$unordered_map@V?$basic_string@DU?$char_traits@D@std@@V?$allocator@D@2@@std@@V12@U?$hash@V?$basic_string@DU?$char_traits@D@std@@V?$allocator@D@2@@std@@@2@U?$equal_to@V?$basic_string@DU?$char_traits@D@std@@V?$allocator@D@2@@std@@@2@V?$allocator@U?$pair@$$CBV?$basic_string@DU?$char_traits@D@std@@V?$allocator@D@2@@std@@V12@@std@@@2@@std@@@2@@std@@@5@@Z
	??$to_array@V?$back_insert_iterator@V?$vector@V?$unordered_map@V?$basic_string@DU?$char_traits@D@std@@V?$allocator@D@2@@std@@V12@U?$hash@V?$basic_string@DU?$char_traits@D@std@@V?$allocator@D@2@@std@@@2@U?$equal_to@V?$basic_string@DU?$char_traits@D@std@@V?$allocator@D@2@@std@@@2@V?$allocator@U?$pair@$$CBV?$basic_string@DU?$char_traits@D@std@@V?$allocator@D@2@@std@@V12@@std@@@2@@std@@V?$allocator@V?$unordered_map@V?$basic_string@DU?$char_traits@D@std@@V?$allocator@D@2@@std@@V12@U?$hash@V?$basic_string@DU?$char_traits@D@std@@V?$allocator@D@2@@std@@@2@U?$equal_to@V?$basic_string@DU?$char_traits@D@std@@V?$allocator@D@2@@std@@@2@V?$allocator@U?$pair@$$CBV?$basic_string@DU?$char_traits@D@std@@V?$allocator@D@2@@std@@V12@@std@@@2@@std@@@2@@std@@@std@@@reply@redis@sw@@YAXAEAUredisReply@@V?$back_insert_iterator@V?$vector@V?$unordered_map@V?$basic_string@DU?$char_traits@D@std@@V?$allocator@D@2@@std@@V12@U?$hash@V?$basic_string@DU?$char_traits@D@std@@V?$allocator@D@2@@std@@@2@U?$equal_to@V?$basic_string@DU?$char_traits@D@std@@V?$allocator@D@2@@std@@@2@V?$allocator@U?$pair@$$CBV?$basic_string@DU?$char_traits@D@std@@V?$allocator@D@2@@std@@V12@@std@@@2@@std@@V?$allocator@V?$unordered_map@V?$basic_string@DU?$char_traits@D@std@@V?$allocator@D@2@@std@@V12@U?$hash@V?$basic_string@DU?$char_traits@D@std@@V?$allocator@D@2@@std@@@2@U?$equal_to@V?$basic_string@DU?$char_traits@D@std@@V?$allocator@D@2@@std@@@2@V?$allocator@U?$pair@$$CBV?$basic_string@DU?$char_traits@D@std@@V?$allocator@D@2@@std@@V12@@std@@@2@@std@@@2@@std@@@std@@@Z
	??$to_array@V?$insert_iterator@V?$unordered_map@V?$basic_string@DU?$char_traits@D@std@@V?$allocator@D@2@@std@@V12@U?$hash@V?$basic_string@DU?$char_traits@D@std@@V?$allocator@D@2@@std@@@2@U?$equal_to@V?$basic_string@DU?$char_traits@D@std@@V?$allocator@D@2@@std@@@2@V?$allocator@U?$pair@$$CBV?$basic_string@DU?$char_traits@D@std@@V?$allocator@D@2@@std@@V12@@std@@@2@@std@@@std@@@detail@reply@redis@sw@@YAXAEAUredisReply@@V?$insert_iterator@V?$unordered_map@V?$basic_string@DU?$char_traits@D@std@@V?$allocator@D@2@@std@@V12@U?$hash@V?$basic_string@DU?$char_traits@D@std@@V?$allocator@D@2@@std@@@2@U?$equal_to@V?$basic_string@DU?$char_traits@D@std@@V?$allocator@D@2@@std@@@2@V?$allocator@U?$pair@$$CBV?$basic_string@DU?$char_traits@D@std@@V?$allocator@D@2@@std@@V12@@std@@@2@@std@@@std@@@Z
	??$to_array@V?$insert_iterator@V?$unordered_map@V?$basic_string@DU?$char_traits@D@std@@V?$allocator@D@2@@std@@V12@U?$hash@V?$basic_string@DU?$char_traits@D@std@@V?$allocator@D@2@@std@@@2@U?$equal_to@V?$basic_string@DU?$char_traits@D@std@@V?$allocator@D@2@@std@@@2@V?$allocator@U?$pair@$$CBV?$basic_string@DU?$char_traits@D@std@@V?$allocator@D@2@@std@@V12@@std@@@2@@std@@@std@@@detail@reply@redis@sw@@YAXU?$integral_constant@_N$00@std@@AEAUredisReply@@V?$insert_iterator@V?$unordered_map@V?$basic_string@DU?$char_traits@D@std@@V?$allocator@D@2@@std@@V12@U?$hash@V?$basic_string@DU?$char_traits@D@std@@V?$allocator@D@2@@std@@@2@U?$equal_to@V?$basic_string@DU?$char_traits@D@std@@V?$allocator@D@2@@std@@@2@V?$allocator@U?$pair@$$CBV?$basic_string@DU?$char_traits@D@std@@V?$allocator@D@2@@std@@V12@@std@@@2@@std@@@5@@Z
	??$to_array@V?$insert_iterator@V?$unordered_map@V?$basic_string@DU?$char_traits@D@std@@V?$allocator@D@2@@std@@V12@U?$hash@V?$basic_string@DU?$char_traits@D@std@@V?$allocator@D@2@@std@@@2@U?$equal_to@V?$basic_string@DU?$char_traits@D@std@@V?$allocator@D@2@@std@@@2@V?$allocator@U?$pair@$$CBV?$basic_string@DU?$char_traits@D@std@@V?$allocator@D@2@@std@@V12@@std@@@2@@std@@@std@@@reply@redis@sw@@YAXAEAUredisReply@@V?$insert_iterator@V?$unordered_map@V?$basic_string@DU?$char_traits@D@std@@V?$allocator@D@2@@std@@V12@U?$hash@V?$basic_string@DU?$char_traits@D@std@@V?$allocator@D@2@@std@@@2@U?$equal_to@V?$basic_string@DU?$char_traits@D@std@@V?$allocator@D@2@@std@@@2@V?$allocator@U?$pair@$$CBV?$basic_string@DU?$char_traits@D@std@@V?$allocator@D@2@@std@@V12@@std@@@2@@std@@@std@@@Z
	??$to_flat_array@V?$insert_iterator@V?$unordered_map@V?$basic_string@DU?$char_traits@D@std@@V?$allocator@D@2@@std@@V12@U?$hash@V?$basic_string@DU?$char_traits@D@std@@V?$allocator@D@2@@std@@@2@U?$equal_to@V?$basic_string@DU?$char_traits@D@std@@V?$allocator@D@2@@std@@@2@V?$allocator@U?$pair@$$CBV?$basic_string@DU?$char_traits@D@std@@V?$allocator@D@2@@std@@V12@@std@@@2@@std@@@std@@@detail@reply@redis@sw@@YAXAEAUredisReply@@V?$insert_iterator@V?$unordered_map@V?$basic_string@DU?$char_traits@D@std@@V?$allocator@D@2@@std@@V12@U?$hash@V?$basic_string@DU?$char_traits@D@std@@V?$allocator@D@2@@std@@@2@U?$equal_to@V?$basic_string@DU?$char_traits@D@std@@V?$allocator@D@2@@std@@@2@V?$allocator@U?$pair@$$CBV?$basic_string@DU?$char_traits@D@std@@V?$allocator@D@2@@std@@V12@@std@@@2@@std@@@std@@@Z
	??$uninitialized_copy@PEAPEAVConnection@redis@sw@@PEAPEAV123@@std@@YAPEAPEAVConnection@redis@sw@@QEAPEAV123@0PEAPEAV123@@Z
	??$uninitialized_fill@PEAV?$_List_unchecked_const_iterator@V?$_List_val@U?$_List_simple_types@UNode@redis@sw@@@std@@@std@@U_Iterator_base0@2@@std@@V12@@std@@YAXQEAV?$_List_unchecked_const_iterator@V?$_List_val@U?$_List_simple_types@UNode@redis@sw@@@std@@@std@@U_Iterator_base0@2@@0@0AEBV10@@Z
	??$uninitialized_fill@PEAV?$_List_unchecked_const_iterator@V?$_List_val@U?$_List_simple_types@_K@std@@@std@@U_Iterator_base0@2@@std@@V12@@std@@YAXQEAV?$_List_unchecked_const_iterator@V?$_List_val@U?$_List_simple_types@_K@std@@@std@@U_Iterator_base0@2@@0@0AEBV10@@Z
	??$uninitialized_fill@PEAV?$_List_unchecked_iterator@V?$_List_val@U?$_List_simple_types@U?$pair@$$CBUNode@redis@sw@@V?$shared_ptr@VConnectionPool@redis@sw@@@std@@@std@@@std@@@std@@@std@@V12@@std@@YAXQEAV?$_List_unchecked_iterator@V?$_List_val@U?$_List_simple_types@U?$pair@$$CBUNode@redis@sw@@V?$shared_ptr@VConnectionPool@redis@sw@@@std@@@std@@@std@@@std@@@0@0AEBV10@@Z
	??$uninitialized_fill@PEAV?$_List_unchecked_iterator@V?$_List_val@U?$_List_simple_types@U?$pair@$$CBV?$basic_string@DU?$char_traits@D@std@@V?$allocator@D@2@@std@@V12@@std@@@std@@@std@@@std@@V12@@std@@YAXQEAV?$_List_unchecked_iterator@V?$_List_val@U?$_List_simple_types@U?$pair@$$CBV?$basic_string@DU?$char_traits@D@std@@V?$allocator@D@2@@std@@V12@@std@@@std@@@std@@@0@0AEBV10@@Z
	??$uninitialized_fill@PEAV?$_List_unchecked_iterator@V?$_List_val@U?$_List_simple_types@U?$pair@$$CBV?$basic_string@DU?$char_traits@D@std@@V?$allocator@D@2@@std@@W4ReplyErrorType@redis@sw@@@std@@@std@@@std@@@std@@V12@@std@@YAXQEAV?$_List_unchecked_iterator@V?$_List_val@U?$_List_simple_types@U?$pair@$$CBV?$basic_string@DU?$char_traits@D@std@@V?$allocator@D@2@@std@@W4ReplyErrorType@redis@sw@@@std@@@std@@@std@@@0@0AEBV10@@Z
	??$zadd_range@PEBU?$pair@V?$basic_string_view@DU?$char_traits@D@std@@@std@@N@std@@@cmd@redis@sw@@YAXAEAVConnection@12@AEBV?$basic_string_view@DU?$char_traits@D@std@@@std@@PEBU?$pair@V?$basic_string_view@DU?$char_traits@D@std@@@std@@N@5@2W4UpdateType@12@_N@Z
	??0?$BoundedInterval@N@redis@sw@@QEAA@NNW4BoundType@12@@Z
	??0?$BoundedInterval@V?$basic_string@DU?$char_traits@D@std@@V?$allocator@D@2@@std@@@redis@sw@@QEAA@AEBV?$basic_string@DU?$char_traits@D@std@@V?$allocator@D@2@@std@@0W4BoundType@12@@Z
	??0?$LeftBoundedInterval@N@redis@sw@@QEAA@NW4BoundType@12@@Z
	??0?$LeftBoundedInterval@V?$basic_string@DU?$char_traits@D@std@@V?$allocator@D@2@@std@@@redis@sw@@QEAA@AEBV?$basic_string@DU?$char_traits@D@std@@V?$allocator@D@2@@std@@W4BoundType@12@@Z
	??0?$RightBoundedInterval@N@redis@sw@@QEAA@NW4BoundType@12@@Z
	??0?$RightBoundedInterval@V?$basic_string@DU?$char_traits@D@std@@V?$allocator@D@2@@std@@@redis@sw@@QEAA@AEBV?$basic_string@DU?$char_traits@D@std@@V?$allocator@D@2@@std@@W4BoundType@12@@Z
	??0?$basic_string@DU?$char_traits@D@std@@V?$allocator@D@2@@std@@QEAA@AEBV01@@Z
	??0?$basic_string@DU?$char_traits@D@std@@V?$allocator@D@2@@std@@QEAA@QEBD@Z
	??0?$basic_string@DU?$char_traits@D@std@@V?$allocator@D@2@@std@@QEAA@QEBD_K@Z
	??0?$basic_string@DU?$char_traits@D@std@@V?$allocator@D@2@@std@@QEAA@U_String_constructor_concat_tag@1@AEAV01@1@Z
	??0?$basic_string@DU?$char_traits@D@std@@V?$allocator@D@2@@std@@QEAA@U_String_constructor_concat_tag@1@AEBV01@QEBD_K23@Z
	??0?$unordered_map@V?$basic_string@DU?$char_traits@D@std@@V?$allocator@D@2@@std@@V12@U?$hash@V?$basic_string@DU?$char_traits@D@std@@V?$allocator@D@2@@std@@@2@U?$equal_to@V?$basic_string@DU?$char_traits@D@std@@V?$allocator@D@2@@std@@@2@V?$allocator@U?$pair@$$CBV?$basic_string@DU?$char_traits@D@std@@V?$allocator@D@2@@std@@V12@@std@@@2@@std@@QEAA@$$QEAV01@@Z
	??0?$unordered_set@_KU?$hash@_K@std@@U?$equal_to@_K@2@V?$allocator@_K@2@@std@@QEAA@$$QEAV01@@Z
	??0?$unordered_set@_KU?$hash@_K@std@@U?$equal_to@_K@2@V?$allocator@_K@2@@std@@QEAA@XZ
	??0AskError@redis@sw@@QEAA@AEBV012@@Z
	??0AskError@redis@sw@@QEAA@AEBV?$basic_string@DU?$char_traits@D@std@@V?$allocator@D@2@@std@@@Z
	??0ClosedError@redis@sw@@QEAA@AEBV012@@Z
	??0ClosedError@redis@sw@@QEAA@AEBV?$basic_string@DU?$char_traits@D@std@@V?$allocator@D@2@@std@@@Z
	??0Connection@redis@sw@@QEAA@$$QEAV012@@Z
	??0Connection@redis@sw@@QEAA@AEBUConnectionOptions@12@@Z
	??0ConnectionOptions@redis@sw@@QEAA@$$QEAU012@@Z
	??0ConnectionOptions@redis@sw@@QEAA@AEBU012@@Z
	??0ConnectionPool@redis@sw@@QEAA@$$QEAV012@@Z
	??0ConnectionPool@redis@sw@@QEAA@AEBUConnectionPoolOptions@12@AEBUConnectionOptions@12@@Z
	??0ConnectionPool@redis@sw@@QEAA@VSimpleSentinel@12@AEBUConnectionPoolOptions@12@AEBUConnectionOptions@12@@Z
	??0Connector@Connection@redis@sw@@QEAA@AEBUConnectionOptions@23@@Z
	??0Error@redis@sw@@QEAA@AEBV012@@Z
	??0Error@redis@sw@@QEAA@AEBV?$basic_string@DU?$char_traits@D@std@@V?$allocator@D@2@@std@@@Z
	??0IoError@redis@sw@@QEAA@AEBV012@@Z
	??0IoError@redis@sw@@QEAA@AEBV?$basic_string@DU?$char_traits@D@std@@V?$allocator@D@2@@std@@@Z
	??0LockWatcher@redis@sw@@QEAA@XZ
	??0MovedError@redis@sw@@QEAA@AEBV012@@Z
	??0MovedError@redis@sw@@QEAA@AEBV?$basic_string@DU?$char_traits@D@std@@V?$allocator@D@2@@std@@@Z
	??0OomError@redis@sw@@QEAA@AEBV012@@Z
	??0OomError@redis@sw@@QEAA@AEBV?$basic_string@DU?$char_traits@D@std@@V?$allocator@D@2@@std@@@Z
	??0ParseError@redis@sw@@QEAA@AEBV012@@Z
	??0ParseError@redis@sw@@QEAA@AEBV?$basic_string@DU?$char_traits@D@std@@V?$allocator@D@2@@std@@AEBUredisReply@@@Z
	??0ProtoError@redis@sw@@QEAA@AEBV012@@Z
	??0ProtoError@redis@sw@@QEAA@AEBV?$basic_string@DU?$char_traits@D@std@@V?$allocator@D@2@@std@@@Z
	??0RedLockMutexVessel@redis@sw@@QEAA@V?$initializer_list@V?$shared_ptr@VRedis@redis@sw@@@std@@@std@@@Z
	??0RedLockMutexVessel@redis@sw@@QEAA@V?$shared_ptr@VRedis@redis@sw@@@std@@@Z
	??0RedMutexTx@redis@sw@@QEAA@V?$initializer_list@V?$shared_ptr@VRedis@redis@sw@@@std@@@std@@AEBV?$basic_string@DU?$char_traits@D@std@@V?$allocator@D@2@@4@@Z
	??0RedMutexTx@redis@sw@@QEAA@V?$shared_ptr@VRedis@redis@sw@@@std@@AEBV?$basic_string@DU?$char_traits@D@std@@V?$allocator@D@2@@4@@Z
	??0RedirectionError@redis@sw@@QEAA@AEBV012@@Z
	??0RedirectionError@redis@sw@@QEAA@AEBV?$basic_string@DU?$char_traits@D@std@@V?$allocator@D@2@@std@@@Z
	??0Redis@redis@sw@@AEAA@AEBV?$shared_ptr@VGuardedConnection@redis@sw@@@std@@@Z
	??0Redis@redis@sw@@AEAA@AEBVUri@12@@Z
	??0RedisCluster@redis@sw@@AEAA@AEBVUri@12@@Z
	??0ReplyError@redis@sw@@QEAA@AEBV012@@Z
	??0ReplyError@redis@sw@@QEAA@AEBV?$basic_string@DU?$char_traits@D@std@@V?$allocator@D@2@@std@@@Z
	??0Sentinel@redis@sw@@QEAA@AEBUSentinelOptions@12@@Z
	??0SentinelOptions@redis@sw@@QEAA@AEBU012@@Z
	??0ShardsPool@redis@sw@@QEAA@AEBUConnectionPoolOptions@12@AEBUConnectionOptions@12@W4Role@12@@Z
	??0SimpleSentinel@redis@sw@@QEAA@AEBV?$shared_ptr@VSentinel@redis@sw@@@std@@AEBV?$basic_string@DU?$char_traits@D@std@@V?$allocator@D@2@@4@W4Role@12@@Z
	??0SlotUncoveredError@redis@sw@@QEAA@AEBV012@@Z
	??0SlotUncoveredError@redis@sw@@QEAA@_K@Z
	??0StopIterError@redis@sw@@QEAA@AEBV012@@Z
	??0StopIterError@redis@sw@@QEAA@AEBV?$vector@V?$basic_string@DU?$char_traits@D@std@@V?$allocator@D@2@@std@@V?$allocator@V?$basic_string@DU?$char_traits@D@std@@V?$allocator@D@2@@std@@@2@@std@@@Z
	??0Subscriber@redis@sw@@AEAA@VConnection@12@@Z
	??0TimeoutError@redis@sw@@QEAA@AEBV012@@Z
	??0TimeoutError@redis@sw@@QEAA@AEBV?$basic_string@DU?$char_traits@D@std@@V?$allocator@D@2@@std@@@Z
	??0TlsInit@tls@redis@sw@@QEAA@XZ
	??0TlsOptions@tls@redis@sw@@QEAA@AEBU0123@@Z
	??0Uri@redis@sw@@QEAA@AEBV?$basic_string@DU?$char_traits@D@std@@V?$allocator@D@2@@std@@@Z
	??0WatchError@redis@sw@@QEAA@AEBV012@@Z
	??0WatchError@redis@sw@@QEAA@XZ
	??0_System_error@std@@IEAA@Verror_code@1@AEBV?$basic_string@DU?$char_traits@D@std@@V?$allocator@D@2@@1@@Z
	??0_System_error@std@@QEAA@AEBV01@@Z
	??0bad_alloc@std@@QEAA@AEBV01@@Z
	??0bad_array_new_length@std@@QEAA@AEBV01@@Z
	??0bad_array_new_length@std@@QEAA@XZ
	??0bad_weak_ptr@std@@QEAA@AEBV01@@Z
	??0bad_weak_ptr@std@@QEAA@XZ
	??0exception@std@@QEAA@AEBV01@@Z
	??0runtime_error@std@@QEAA@AEBV01@@Z
	??0system_error@std@@QEAA@AEBV01@@Z
	??0system_error@std@@QEAA@Verror_code@1@@Z
	??1?$QueuedRedis@VPipelineImpl@redis@sw@@@redis@sw@@QEAA@XZ
	??1?$QueuedRedis@VTransactionImpl@redis@sw@@@redis@sw@@QEAA@XZ
	??1?$_Alloc_construct_ptr@V?$allocator@U?$_List_node@U?$pair@$$CBUNode@redis@sw@@V?$shared_ptr@VConnectionPool@redis@sw@@@std@@@std@@PEAX@std@@@std@@@std@@QEAA@XZ
	??1?$_Alloc_construct_ptr@V?$allocator@U?$_List_node@U?$pair@$$CBV?$basic_string@DU?$char_traits@D@std@@V?$allocator@D@2@@std@@V12@@std@@PEAX@std@@@std@@@std@@QEAA@XZ
	??1?$_Alloc_construct_ptr@V?$allocator@U?$_List_node@U?$pair@$$CBV?$basic_string@DU?$char_traits@D@std@@V?$allocator@D@2@@std@@W4ReplyErrorType@redis@sw@@@std@@PEAX@std@@@std@@@std@@QEAA@XZ
	??1?$_Alloc_construct_ptr@V?$allocator@U?$_List_node@UConnectionOptions@redis@sw@@PEAX@std@@@std@@@std@@QEAA@XZ
	??1?$_Alloc_construct_ptr@V?$allocator@U?$_List_node@UNode@redis@sw@@PEAX@std@@@std@@@std@@QEAA@XZ
	??1?$_Alloc_construct_ptr@V?$allocator@U?$_List_node@V?$basic_string@DU?$char_traits@D@std@@V?$allocator@D@2@@std@@PEAX@std@@@std@@@std@@QEAA@XZ
	??1?$_Alloc_construct_ptr@V?$allocator@U?$_List_node@VConnection@redis@sw@@PEAX@std@@@std@@@std@@QEAA@XZ
	??1?$_Alloc_construct_ptr@V?$allocator@U?$_Tree_node@U?$pair@$$CBUSlotRange@redis@sw@@UNode@23@@std@@PEAX@std@@@std@@@std@@QEAA@XZ
	??1?$_Hash@V?$_Umap_traits@UNode@redis@sw@@V?$shared_ptr@VConnectionPool@redis@sw@@@std@@V?$_Uhash_compare@UNode@redis@sw@@UNodeHash@23@U?$equal_to@UNode@redis@sw@@@std@@@5@V?$allocator@U?$pair@$$CBUNode@redis@sw@@V?$shared_ptr@VConnectionPool@redis@sw@@@std@@@std@@@5@$0A@@std@@@std@@QEAA@XZ
	??1?$_Hash@V?$_Umap_traits@V?$basic_string@DU?$char_traits@D@std@@V?$allocator@D@2@@std@@V12@V?$_Uhash_compare@V?$basic_string@DU?$char_traits@D@std@@V?$allocator@D@2@@std@@U?$hash@V?$basic_string@DU?$char_traits@D@std@@V?$allocator@D@2@@std@@@2@U?$equal_to@V?$basic_string@DU?$char_traits@D@std@@V?$allocator@D@2@@std@@@2@@2@V?$allocator@U?$pair@$$CBV?$basic_string@DU?$char_traits@D@std@@V?$allocator@D@2@@std@@V12@@std@@@2@$0A@@std@@@std@@QEAA@XZ
	??1?$_Hash@V?$_Umap_traits@V?$basic_string@DU?$char_traits@D@std@@V?$allocator@D@2@@std@@W4ReplyErrorType@redis@sw@@V?$_Uhash_compare@V?$basic_string@DU?$char_traits@D@std@@V?$allocator@D@2@@std@@U?$hash@V?$basic_string@DU?$char_traits@D@std@@V?$allocator@D@2@@std@@@2@U?$equal_to@V?$basic_string@DU?$char_traits@D@std@@V?$allocator@D@2@@std@@@2@@2@V?$allocator@U?$pair@$$CBV?$basic_string@DU?$char_traits@D@std@@V?$allocator@D@2@@std@@W4ReplyErrorType@redis@sw@@@std@@@2@$0A@@std@@@std@@QEAA@XZ
	??1?$_Hash@V?$_Uset_traits@UNode@redis@sw@@V?$_Uhash_compare@UNode@redis@sw@@UNodeHash@23@U?$equal_to@UNode@redis@sw@@@std@@@std@@V?$allocator@UNode@redis@sw@@@5@$0A@@std@@@std@@QEAA@XZ
	??1?$_Hash@V?$_Uset_traits@_KV?$_Uhash_compare@_KU?$hash@_K@std@@U?$equal_to@_K@2@@std@@V?$allocator@_K@2@$0A@@std@@@std@@QEAA@XZ
	??1?$_Hash_vec@V?$allocator@V?$_List_unchecked_const_iterator@V?$_List_val@U?$_List_simple_types@UNode@redis@sw@@@std@@@std@@U_Iterator_base0@2@@std@@@std@@@std@@QEAA@XZ
	??1?$_Hash_vec@V?$allocator@V?$_List_unchecked_const_iterator@V?$_List_val@U?$_List_simple_types@_K@std@@@std@@U_Iterator_base0@2@@std@@@std@@@std@@QEAA@XZ
	??1?$_Hash_vec@V?$allocator@V?$_List_unchecked_iterator@V?$_List_val@U?$_List_simple_types@U?$pair@$$CBUNode@redis@sw@@V?$shared_ptr@VConnectionPool@redis@sw@@@std@@@std@@@std@@@std@@@std@@@std@@@std@@QEAA@XZ
	??1?$_Hash_vec@V?$allocator@V?$_List_unchecked_iterator@V?$_List_val@U?$_List_simple_types@U?$pair@$$CBV?$basic_string@DU?$char_traits@D@std@@V?$allocator@D@2@@std@@V12@@std@@@std@@@std@@@std@@@std@@@std@@QEAA@XZ
	??1?$_Hash_vec@V?$allocator@V?$_List_unchecked_iterator@V?$_List_val@U?$_List_simple_types@U?$pair@$$CBV?$basic_string@DU?$char_traits@D@std@@V?$allocator@D@2@@std@@W4ReplyErrorType@redis@sw@@@std@@@std@@@std@@@std@@@std@@@std@@QEAA@XZ
	??1?$_List_node_emplace_op2@V?$allocator@U?$_List_node@U?$pair@$$CBUNode@redis@sw@@V?$shared_ptr@VConnectionPool@redis@sw@@@std@@@std@@PEAX@std@@@std@@@std@@QEAA@XZ
	??1?$_List_node_emplace_op2@V?$allocator@U?$_List_node@U?$pair@$$CBV?$basic_string@DU?$char_traits@D@std@@V?$allocator@D@2@@std@@V12@@std@@PEAX@std@@@std@@@std@@QEAA@XZ
	??1?$_List_node_emplace_op2@V?$allocator@U?$_List_node@U?$pair@$$CBV?$basic_string@DU?$char_traits@D@std@@V?$allocator@D@2@@std@@W4ReplyErrorType@redis@sw@@@std@@PEAX@std@@@std@@@std@@QEAA@XZ
	??1?$_List_node_emplace_op2@V?$allocator@U?$_List_node@UNode@redis@sw@@PEAX@std@@@std@@@std@@QEAA@XZ
	??1?$_Optional_destruct_base@V?$basic_string@DU?$char_traits@D@std@@V?$allocator@D@2@@std@@$0A@@std@@QEAA@XZ
	??1?$_Ref_count_obj2@VConnectionPool@redis@sw@@@std@@UEAA@XZ
	??1?$_Ref_count_obj2@VGuardedConnection@redis@sw@@@std@@UEAA@XZ
	??1?$_Tidy_guard@V?$vector@U?$pair@V?$basic_string@DU?$char_traits@D@std@@V?$allocator@D@2@@std@@H@std@@V?$allocator@U?$pair@V?$basic_string@DU?$char_traits@D@std@@V?$allocator@D@2@@std@@H@std@@@2@@std@@@std@@QEAA@XZ
	??1?$_Tree_head_scoped_ptr@V?$allocator@U?$_Tree_node@U?$pair@$$CBUSlotRange@redis@sw@@UNode@23@@std@@PEAX@std@@@std@@V?$_Tree_val@U?$_Tree_simple_types@U?$pair@$$CBUSlotRange@redis@sw@@UNode@23@@std@@@std@@@2@@std@@QEAA@XZ
	??1?$_Uninitialized_backout_al@V?$allocator@U?$pair@V?$basic_string@DU?$char_traits@D@std@@V?$allocator@D@2@@std@@H@std@@@std@@@std@@QEAA@XZ
	??1?$_Uninitialized_backout_al@V?$allocator@V?$unordered_map@V?$basic_string@DU?$char_traits@D@std@@V?$allocator@D@2@@std@@V12@U?$hash@V?$basic_string@DU?$char_traits@D@std@@V?$allocator@D@2@@std@@@2@U?$equal_to@V?$basic_string@DU?$char_traits@D@std@@V?$allocator@D@2@@std@@@2@V?$allocator@U?$pair@$$CBV?$basic_string@DU?$char_traits@D@std@@V?$allocator@D@2@@std@@V12@@std@@@2@@std@@@std@@@std@@QEAA@XZ
	??1?$basic_string@DU?$char_traits@D@std@@V?$allocator@D@2@@std@@QEAA@XZ
	??1?$deque@VConnection@redis@sw@@V?$allocator@VConnection@redis@sw@@@std@@@std@@QEAA@XZ
	??1?$function@$$A6AXV?$basic_string@DU?$char_traits@D@std@@V?$allocator@D@2@@std@@00@Z@std@@QEAA@XZ
	??1?$function@$$A6AXV?$basic_string@DU?$char_traits@D@std@@V?$allocator@D@2@@std@@0@Z@std@@QEAA@XZ
	??1?$function@$$A6AXW4MsgType@Subscriber@redis@sw@@V?$optional@V?$basic_string@DU?$char_traits@D@std@@V?$allocator@D@2@@std@@@std@@_J@Z@std@@QEAA@XZ
	??1?$list@U?$pair@$$CBUNode@redis@sw@@V?$shared_ptr@VConnectionPool@redis@sw@@@std@@@std@@V?$allocator@U?$pair@$$CBUNode@redis@sw@@V?$shared_ptr@VConnectionPool@redis@sw@@@std@@@std@@@2@@std@@QEAA@XZ
	??1?$list@U?$pair@$$CBV?$basic_string@DU?$char_traits@D@std@@V?$allocator@D@2@@std@@V12@@std@@V?$allocator@U?$pair@$$CBV?$basic_string@DU?$char_traits@D@std@@V?$allocator@D@2@@std@@V12@@std@@@2@@std@@QEAA@XZ
	??1?$list@U?$pair@$$CBV?$basic_string@DU?$char_traits@D@std@@V?$allocator@D@2@@std@@W4ReplyErrorType@redis@sw@@@std@@V?$allocator@U?$pair@$$CBV?$basic_string@DU?$char_traits@D@std@@V?$allocator@D@2@@std@@W4ReplyErrorType@redis@sw@@@std@@@2@@std@@QEAA@XZ
	??1?$list@UConnectionOptions@redis@sw@@V?$allocator@UConnectionOptions@redis@sw@@@std@@@std@@QEAA@XZ
	??1?$list@UNode@redis@sw@@V?$allocator@UNode@redis@sw@@@std@@@std@@QEAA@XZ
	??1?$list@V?$basic_string@DU?$char_traits@D@std@@V?$allocator@D@2@@std@@V?$allocator@V?$basic_string@DU?$char_traits@D@std@@V?$allocator@D@2@@std@@@2@@std@@QEAA@XZ
	??1?$list@VConnection@redis@sw@@V?$allocator@VConnection@redis@sw@@@std@@@std@@QEAA@XZ
	??1?$list@_KV?$allocator@_K@std@@@std@@QEAA@XZ
	??1?$lock_guard@Vmutex@std@@@std@@QEAA@XZ
	??1?$map@USlotRange@redis@sw@@UNode@23@U?$less@USlotRange@redis@sw@@@std@@V?$allocator@U?$pair@$$CBUSlotRange@redis@sw@@UNode@23@@std@@@6@@std@@QEAA@XZ
	??1?$optional@U?$pair@V?$basic_string@DU?$char_traits@D@std@@V?$allocator@D@2@@std@@V12@@std@@@std@@QEAA@XZ
	??1?$optional@V?$basic_string@DU?$char_traits@D@std@@V?$allocator@D@2@@std@@@std@@QEAA@XZ
	??1?$optional@V?$vector@VTask@LockWatcher@redis@sw@@V?$allocator@VTask@LockWatcher@redis@sw@@@std@@@std@@@std@@QEAA@XZ
	??1?$pair@$$CBV?$basic_string@DU?$char_traits@D@std@@V?$allocator@D@2@@std@@V12@@std@@QEAA@XZ
	??1?$pair@$$CBV?$basic_string@DU?$char_traits@D@std@@V?$allocator@D@2@@std@@W4ReplyErrorType@redis@sw@@@std@@QEAA@XZ
	??1?$pair@USlotRange@redis@sw@@UNode@23@@std@@QEAA@XZ
	??1?$pair@V?$basic_string@DU?$char_traits@D@std@@V?$allocator@D@2@@std@@V12@@std@@QEAA@XZ
	??1?$priority_queue@VTask@LockWatcher@redis@sw@@V?$vector@VTask@LockWatcher@redis@sw@@V?$allocator@VTask@LockWatcher@redis@sw@@@std@@@std@@U?$less@VTask@LockWatcher@redis@sw@@@6@@std@@QEAA@XZ
	??1?$shared_ptr@VConnectionPool@redis@sw@@@std@@QEAA@XZ
	??1?$shared_ptr@VGuardedConnection@redis@sw@@@std@@QEAA@XZ
	??1?$shared_ptr@VRedMutexImpl@redis@sw@@@std@@QEAA@XZ
	??1?$shared_ptr@VRedis@redis@sw@@@std@@QEAA@XZ
	??1?$shared_ptr@VSentinel@redis@sw@@@std@@QEAA@XZ
	??1?$tuple@V?$basic_string@DU?$char_traits@D@std@@V?$allocator@D@2@@std@@@std@@QEAA@XZ
	??1?$tuple@V?$basic_string@DU?$char_traits@D@std@@V?$allocator@D@2@@std@@HV12@@std@@QEAA@XZ
	??1?$tuple@V?$basic_string@DU?$char_traits@D@std@@V?$allocator@D@2@@std@@N@std@@QEAA@XZ
	??1?$tuple@V?$basic_string@DU?$char_traits@D@std@@V?$allocator@D@2@@std@@V12@@std@@QEAA@XZ
	??1?$unique_lock@Vmutex@std@@@std@@QEAA@XZ
	??1?$unique_ptr@UredisContext@@UContextDeleter@Connection@redis@sw@@@std@@QEAA@XZ
	??1?$unique_ptr@UredisReply@@UReplyDeleter@redis@sw@@@std@@QEAA@XZ
	??1?$unique_ptr@UredisSSLContext@@UTlsContextDeleter@tls@redis@sw@@@std@@QEAA@XZ
	??1?$unordered_map@UNode@redis@sw@@V?$shared_ptr@VConnectionPool@redis@sw@@@std@@UNodeHash@23@U?$equal_to@UNode@redis@sw@@@5@V?$allocator@U?$pair@$$CBUNode@redis@sw@@V?$shared_ptr@VConnectionPool@redis@sw@@@std@@@std@@@5@@std@@QEAA@XZ
	??1?$unordered_map@V?$basic_string@DU?$char_traits@D@std@@V?$allocator@D@2@@std@@V12@U?$hash@V?$basic_string@DU?$char_traits@D@std@@V?$allocator@D@2@@std@@@2@U?$equal_to@V?$basic_string@DU?$char_traits@D@std@@V?$allocator@D@2@@std@@@2@V?$allocator@U?$pair@$$CBV?$basic_string@DU?$char_traits@D@std@@V?$allocator@D@2@@std@@V12@@std@@@2@@std@@QEAA@XZ
	??1?$unordered_set@UNode@redis@sw@@UNodeHash@23@U?$equal_to@UNode@redis@sw@@@std@@V?$allocator@UNode@redis@sw@@@6@@std@@QEAA@XZ
	??1?$unordered_set@_KU?$hash@_K@std@@U?$equal_to@_K@2@V?$allocator@_K@2@@std@@QEAA@XZ
	??1?$vector@PEBDV?$allocator@PEBD@std@@@std@@QEAA@XZ
	??1?$vector@U?$pair@V?$basic_string@DU?$char_traits@D@std@@V?$allocator@D@2@@std@@H@std@@V?$allocator@U?$pair@V?$basic_string@DU?$char_traits@D@std@@V?$allocator@D@2@@std@@H@std@@@2@@std@@QEAA@XZ
	??1?$vector@UNode@redis@sw@@V?$allocator@UNode@redis@sw@@@std@@@std@@QEAA@XZ
	??1?$vector@V?$basic_string@DU?$char_traits@D@std@@V?$allocator@D@2@@std@@V?$allocator@V?$basic_string@DU?$char_traits@D@std@@V?$allocator@D@2@@std@@@2@@std@@QEAA@XZ
	??1?$vector@V?$shared_ptr@VConnectionPool@redis@sw@@@std@@V?$allocator@V?$shared_ptr@VConnectionPool@redis@sw@@@std@@@2@@std@@QEAA@XZ
	??1?$vector@V?$shared_ptr@VRedis@redis@sw@@@std@@V?$allocator@V?$shared_ptr@VRedis@redis@sw@@@std@@@2@@std@@QEAA@XZ
	??1?$vector@V?$unique_ptr@UredisReply@@UReplyDeleter@redis@sw@@@std@@V?$allocator@V?$unique_ptr@UredisReply@@UReplyDeleter@redis@sw@@@std@@@2@@std@@QEAA@XZ
	??1?$vector@V?$unordered_map@V?$basic_string@DU?$char_traits@D@std@@V?$allocator@D@2@@std@@V12@U?$hash@V?$basic_string@DU?$char_traits@D@std@@V?$allocator@D@2@@std@@@2@U?$equal_to@V?$basic_string@DU?$char_traits@D@std@@V?$allocator@D@2@@std@@@2@V?$allocator@U?$pair@$$CBV?$basic_string@DU?$char_traits@D@std@@V?$allocator@D@2@@std@@V12@@std@@@2@@std@@V?$allocator@V?$unordered_map@V?$basic_string@DU?$char_traits@D@std@@V?$allocator@D@2@@std@@V12@U?$hash@V?$basic_string@DU?$char_traits@D@std@@V?$allocator@D@2@@std@@@2@U?$equal_to@V?$basic_string@DU?$char_traits@D@std@@V?$allocator@D@2@@std@@@2@V?$allocator@U?$pair@$$CBV?$basic_string@DU?$char_traits@D@std@@V?$allocator@D@2@@std@@V12@@std@@@2@@std@@@2@@std@@QEAA@XZ
	??1?$vector@VTask@LockWatcher@redis@sw@@V?$allocator@VTask@LockWatcher@redis@sw@@@std@@@std@@QEAA@XZ
	??1?$vector@_KV?$allocator@_K@std@@@std@@QEAA@XZ
	??1AskError@redis@sw@@UEAA@XZ
	??1ClosedError@redis@sw@@UEAA@XZ
	??1CmdArgs@redis@sw@@QEAA@XZ
	??1Connection@redis@sw@@QEAA@XZ
	??1ConnectionOptions@redis@sw@@QEAA@XZ
	??1ConnectionPool@redis@sw@@QEAA@XZ
	??1Error@redis@sw@@UEAA@XZ
	??1IoError@redis@sw@@UEAA@XZ
	??1LockInfo@RedLockMutexVessel@redis@sw@@QEAA@XZ
	??1LockWatcher@redis@sw@@QEAA@XZ
	??1MovedError@redis@sw@@UEAA@XZ
	??1Node@redis@sw@@QEAA@XZ
	??1OomError@redis@sw@@UEAA@XZ
	??1ParseError@redis@sw@@UEAA@XZ
	??1ProtoError@redis@sw@@UEAA@XZ
	??1QueuedReplies@redis@sw@@QEAA@XZ
	??1RedLockMutexVessel@redis@sw@@QEAA@XZ
	??1RedirectionError@redis@sw@@UEAA@XZ
	??1Redis@redis@sw@@QEAA@XZ
	??1ReplyError@redis@sw@@UEAA@XZ
	??1SafeConnection@redis@sw@@QEAA@XZ
	??1SentinelOptions@redis@sw@@QEAA@XZ
	??1ShardsPool@redis@sw@@QEAA@XZ
	??1SimpleSentinel@redis@sw@@QEAA@XZ
	??1SlotUncoveredError@redis@sw@@UEAA@XZ
	??1StopIterError@redis@sw@@UEAA@XZ
	??1Task@LockWatcher@redis@sw@@QEAA@XZ
	??1TimeoutError@redis@sw@@UEAA@XZ
	??1TlsOptions@tls@redis@sw@@QEAA@XZ
	??1WatchError@redis@sw@@UEAA@XZ
	??1_Ref_count_base@std@@UEAA@XZ
	??1bad_array_new_length@std@@UEAA@XZ
	??1bad_weak_ptr@std@@UEAA@XZ
	??1condition_variable@std@@QEAA@XZ
	??1error_category@std@@UEAA@XZ
	??1exception@std@@UEAA@XZ
	??1exception_ptr@std@@QEAA@XZ
	??1mutex@std@@QEAA@XZ
	??1system_error@std@@UEAA@XZ
	??1thread@std@@QEAA@XZ
	??4?$basic_string@DU?$char_traits@D@std@@V?$allocator@D@2@@std@@QEAAAEAV01@$$QEAV01@@Z
	??4?$map@USlotRange@redis@sw@@UNode@23@U?$less@USlotRange@redis@sw@@@std@@V?$allocator@U?$pair@$$CBUSlotRange@redis@sw@@UNode@23@@std@@@6@@std@@QEAAAEAV01@$$QEAV01@@Z
	??4ConnectionOptions@redis@sw@@QEAAAEAU012@$$QEAU012@@Z
	??4ConnectionPool@redis@sw@@QEAAAEAV012@$$QEAV012@@Z
	??6CmdArgs@redis@sw@@QEAAAEAV012@AEBV?$basic_string_view@DU?$char_traits@D@std@@@std@@@Z
	??C?$_List_const_iterator@V?$_List_val@U?$_List_simple_types@U?$pair@$$CBV?$basic_string@DU?$char_traits@D@std@@V?$allocator@D@2@@std@@V12@@std@@@std@@@std@@@std@@QEBAPEBU?$pair@$$CBV?$basic_string@DU?$char_traits@D@std@@V?$allocator@D@2@@std@@V12@@1@XZ
	??C?$optional@U?$pair@V?$basic_string@DU?$char_traits@D@std@@V?$allocator@D@2@@std@@V12@@std@@@std@@QEAAPEAU?$pair@V?$basic_string@DU?$char_traits@D@std@@V?$allocator@D@2@@std@@V12@@1@XZ
	??R?$_Func_class@XV?$basic_string@DU?$char_traits@D@std@@V?$allocator@D@2@@std@@V12@@std@@QEBAXV?$basic_string@DU?$char_traits@D@std@@V?$allocator@D@2@@1@0@Z
	??R?$_Func_class@XVexception_ptr@std@@@std@@QEBAXVexception_ptr@1@@Z
	??R?$_Rng_from_urng@IV?$mersenne_twister_engine@I$0CA@$0CHA@$0BIN@$0BP@$0JJAILANP@$0L@$0PPPPPPPP@$06$0JNCMFGIA@$0P@$0OPMGAAAA@$0BC@$0GMAHIJGF@@std@@@std@@QEAAII@Z
	??R?$_Rng_from_urng@_KV?$mersenne_twister_engine@I$0CA@$0CHA@$0BIN@$0BP@$0JJAILANP@$0L@$0PPPPPPPP@$06$0JNCMFGIA@$0P@$0OPMGAAAA@$0BC@$0GMAHIJGF@@std@@@std@@QEAA_K_K@Z
	?_Assign_grow@?$_Hash_vec@V?$allocator@V?$_List_unchecked_const_iterator@V?$_List_val@U?$_List_simple_types@UNode@redis@sw@@@std@@@std@@U_Iterator_base0@2@@std@@@std@@@std@@QEAAX_KV?$_List_unchecked_const_iterator@V?$_List_val@U?$_List_simple_types@UNode@redis@sw@@@std@@@std@@U_Iterator_base0@2@@2@@Z
	?_Assign_grow@?$_Hash_vec@V?$allocator@V?$_List_unchecked_const_iterator@V?$_List_val@U?$_List_simple_types@_K@std@@@std@@U_Iterator_base0@2@@std@@@std@@@std@@QEAAX_KV?$_List_unchecked_const_iterator@V?$_List_val@U?$_List_simple_types@_K@std@@@std@@U_Iterator_base0@2@@2@@Z
	?_Assign_grow@?$_Hash_vec@V?$allocator@V?$_List_unchecked_iterator@V?$_List_val@U?$_List_simple_types@U?$pair@$$CBUNode@redis@sw@@V?$shared_ptr@VConnectionPool@redis@sw@@@std@@@std@@@std@@@std@@@std@@@std@@@std@@QEAAX_KV?$_List_unchecked_iterator@V?$_List_val@U?$_List_simple_types@U?$pair@$$CBUNode@redis@sw@@V?$shared_ptr@VConnectionPool@redis@sw@@@std@@@std@@@std@@@std@@@2@@Z
	?_Assign_grow@?$_Hash_vec@V?$allocator@V?$_List_unchecked_iterator@V?$_List_val@U?$_List_simple_types@U?$pair@$$CBV?$basic_string@DU?$char_traits@D@std@@V?$allocator@D@2@@std@@V12@@std@@@std@@@std@@@std@@@std@@@std@@QEAAX_KV?$_List_unchecked_iterator@V?$_List_val@U?$_List_simple_types@U?$pair@$$CBV?$basic_string@DU?$char_traits@D@std@@V?$allocator@D@2@@std@@V12@@std@@@std@@@std@@@2@@Z
	?_Assign_grow@?$_Hash_vec@V?$allocator@V?$_List_unchecked_iterator@V?$_List_val@U?$_List_simple_types@U?$pair@$$CBV?$basic_string@DU?$char_traits@D@std@@V?$allocator@D@2@@std@@W4ReplyErrorType@redis@sw@@@std@@@std@@@std@@@std@@@std@@@std@@QEAAX_KV?$_List_unchecked_iterator@V?$_List_val@U?$_List_simple_types@U?$pair@$$CBV?$basic_string@DU?$char_traits@D@std@@V?$allocator@D@2@@std@@W4ReplyErrorType@redis@sw@@@std@@@std@@@std@@@2@@Z
	?_Change_array@?$vector@V?$shared_ptr@VConnectionPool@redis@sw@@@std@@V?$allocator@V?$shared_ptr@VConnectionPool@redis@sw@@@std@@@2@@std@@AEAAXQEAV?$shared_ptr@VConnectionPool@redis@sw@@@2@_K1@Z
	?_Change_array@?$vector@VTask@LockWatcher@redis@sw@@V?$allocator@VTask@LockWatcher@redis@sw@@@std@@@std@@AEAAXQEAVTask@LockWatcher@redis@sw@@_K1@Z
	?_Delete_this@?$_Ref_count_obj2@VConnectionPool@redis@sw@@@std@@EEAAXXZ
	?_Delete_this@?$_Ref_count_obj2@VGuardedConnection@redis@sw@@@std@@EEAAXXZ
	?_Destroy@?$_Ref_count_obj2@VConnectionPool@redis@sw@@@std@@EEAAXXZ
	?_Destroy@?$_Ref_count_obj2@VGuardedConnection@redis@sw@@@std@@EEAAXXZ
	?_Destroy@?$vector@UNode@redis@sw@@V?$allocator@UNode@redis@sw@@@std@@@std@@AEAAXPEAUNode@redis@sw@@0@Z
	?_Destroy@?$vector@V?$basic_string@DU?$char_traits@D@std@@V?$allocator@D@2@@std@@V?$allocator@V?$basic_string@DU?$char_traits@D@std@@V?$allocator@D@2@@std@@@2@@std@@AEAAXPEAV?$basic_string@DU?$char_traits@D@std@@V?$allocator@D@2@@2@0@Z
	?_Destroy@?$vector@V?$shared_ptr@VConnectionPool@redis@sw@@@std@@V?$allocator@V?$shared_ptr@VConnectionPool@redis@sw@@@std@@@2@@std@@AEAAXPEAV?$shared_ptr@VConnectionPool@redis@sw@@@2@0@Z
	?_Destroy@?$vector@V?$shared_ptr@VRedis@redis@sw@@@std@@V?$allocator@V?$shared_ptr@VRedis@redis@sw@@@std@@@2@@std@@AEAAXPEAV?$shared_ptr@VRedis@redis@sw@@@2@0@Z
	?_Destroy@?$vector@V?$unique_ptr@UredisReply@@UReplyDeleter@redis@sw@@@std@@V?$allocator@V?$unique_ptr@UredisReply@@UReplyDeleter@redis@sw@@@std@@@2@@std@@AEAAXPEAV?$unique_ptr@UredisReply@@UReplyDeleter@redis@sw@@@2@0@Z
	?_Destroy@?$vector@V?$unordered_map@V?$basic_string@DU?$char_traits@D@std@@V?$allocator@D@2@@std@@V12@U?$hash@V?$basic_string@DU?$char_traits@D@std@@V?$allocator@D@2@@std@@@2@U?$equal_to@V?$basic_string@DU?$char_traits@D@std@@V?$allocator@D@2@@std@@@2@V?$allocator@U?$pair@$$CBV?$basic_string@DU?$char_traits@D@std@@V?$allocator@D@2@@std@@V12@@std@@@2@@std@@V?$allocator@V?$unordered_map@V?$basic_string@DU?$char_traits@D@std@@V?$allocator@D@2@@std@@V12@U?$hash@V?$basic_string@DU?$char_traits@D@std@@V?$allocator@D@2@@std@@@2@U?$equal_to@V?$basic_string@DU?$char_traits@D@std@@V?$allocator@D@2@@std@@@2@V?$allocator@U?$pair@$$CBV?$basic_string@DU?$char_traits@D@std@@V?$allocator@D@2@@std@@V12@@std@@@2@@std@@@2@@std@@AEAAXPEAV?$unordered_map@V?$basic_string@DU?$char_traits@D@std@@V?$allocator@D@2@@std@@V12@U?$hash@V?$basic_string@DU?$char_traits@D@std@@V?$allocator@D@2@@std@@@2@U?$equal_to@V?$basic_string@DU?$char_traits@D@std@@V?$allocator@D@2@@std@@@2@V?$allocator@U?$pair@$$CBV?$basic_string@DU?$char_traits@D@std@@V?$allocator@D@2@@std@@V12@@std@@@2@@2@0@Z
	?_Destroy@?$vector@VTask@LockWatcher@redis@sw@@V?$allocator@VTask@LockWatcher@redis@sw@@@std@@@std@@AEAAXPEAVTask@LockWatcher@redis@sw@@0@Z
	?_Forced_rehash@?$_Hash@V?$_Umap_traits@UNode@redis@sw@@V?$shared_ptr@VConnectionPool@redis@sw@@@std@@V?$_Uhash_compare@UNode@redis@sw@@UNodeHash@23@U?$equal_to@UNode@redis@sw@@@std@@@5@V?$allocator@U?$pair@$$CBUNode@redis@sw@@V?$shared_ptr@VConnectionPool@redis@sw@@@std@@@std@@@5@$0A@@std@@@std@@IEAAX_K@Z
	?_Forced_rehash@?$_Hash@V?$_Umap_traits@V?$basic_string@DU?$char_traits@D@std@@V?$allocator@D@2@@std@@V12@V?$_Uhash_compare@V?$basic_string@DU?$char_traits@D@std@@V?$allocator@D@2@@std@@U?$hash@V?$basic_string@DU?$char_traits@D@std@@V?$allocator@D@2@@std@@@2@U?$equal_to@V?$basic_string@DU?$char_traits@D@std@@V?$allocator@D@2@@std@@@2@@2@V?$allocator@U?$pair@$$CBV?$basic_string@DU?$char_traits@D@std@@V?$allocator@D@2@@std@@V12@@std@@@2@$0A@@std@@@std@@IEAAX_K@Z
	?_Forced_rehash@?$_Hash@V?$_Umap_traits@V?$basic_string@DU?$char_traits@D@std@@V?$allocator@D@2@@std@@W4ReplyErrorType@redis@sw@@V?$_Uhash_compare@V?$basic_string@DU?$char_traits@D@std@@V?$allocator@D@2@@std@@U?$hash@V?$basic_string@DU?$char_traits@D@std@@V?$allocator@D@2@@std@@@2@U?$equal_to@V?$basic_string@DU?$char_traits@D@std@@V?$allocator@D@2@@std@@@2@@2@V?$allocator@U?$pair@$$CBV?$basic_string@DU?$char_traits@D@std@@V?$allocator@D@2@@std@@W4ReplyErrorType@redis@sw@@@std@@@2@$0A@@std@@@std@@IEAAX_K@Z
	?_Forced_rehash@?$_Hash@V?$_Uset_traits@UNode@redis@sw@@V?$_Uhash_compare@UNode@redis@sw@@UNodeHash@23@U?$equal_to@UNode@redis@sw@@@std@@@std@@V?$allocator@UNode@redis@sw@@@5@$0A@@std@@@std@@IEAAX_K@Z
	?_Get_all_bits@?$_Rng_from_urng@_KV?$mersenne_twister_engine@I$0CA@$0CHA@$0BIN@$0BP@$0JJAILANP@$0L@$0PPPPPPPP@$06$0JNCMFGIA@$0P@$0OPMGAAAA@$0BC@$0GMAHIJGF@@std@@@std@@QEAA_KXZ
	?_Get_deleter@_Ref_count_base@std@@UEBAPEAXAEBVtype_info@@@Z
	?_Getal@?$_Tree@V?$_Tmap_traits@USlotRange@redis@sw@@UNode@23@U?$less@USlotRange@redis@sw@@@std@@V?$allocator@U?$pair@$$CBUSlotRange@redis@sw@@UNode@23@@std@@@6@$0A@@std@@@std@@IEAAAEAV?$allocator@U?$_Tree_node@U?$pair@$$CBUSlotRange@redis@sw@@UNode@23@@std@@PEAX@std@@@2@XZ
	?_Getal@?$vector@V?$shared_ptr@VConnectionPool@redis@sw@@@std@@V?$allocator@V?$shared_ptr@VConnectionPool@redis@sw@@@std@@@2@@std@@AEAAAEAV?$allocator@V?$shared_ptr@VConnectionPool@redis@sw@@@std@@@2@XZ
	?_Getal@?$vector@VTask@LockWatcher@redis@sw@@V?$allocator@VTask@LockWatcher@redis@sw@@@std@@@std@@AEAAAEAV?$allocator@VTask@LockWatcher@redis@sw@@@2@XZ
	?_Growmap@?$deque@VConnection@redis@sw@@V?$allocator@VConnection@redis@sw@@@std@@@std@@AEAAX_K@Z
	?_Insert_node@?$_Tree_val@U?$_Tree_simple_types@U?$pair@$$CBUSlotRange@redis@sw@@UNode@23@@std@@@std@@@std@@QEAAPEAU?$_Tree_node@U?$pair@$$CBUSlotRange@redis@sw@@UNode@23@@std@@PEAX@2@U?$_Tree_id@PEAU?$_Tree_node@U?$pair@$$CBUSlotRange@redis@sw@@UNode@23@@std@@PEAX@std@@@2@QEAU32@@Z
	?_Reallocate_exactly@?$vector@V?$shared_ptr@VConnectionPool@redis@sw@@@std@@V?$allocator@V?$shared_ptr@VConnectionPool@redis@sw@@@std@@@2@@std@@AEAAX_K@Z
	?_Reallocate_exactly@?$vector@VTask@LockWatcher@redis@sw@@V?$allocator@VTask@LockWatcher@redis@sw@@@std@@@std@@AEAAX_K@Z
	?_Rehash_for_1@?$_Hash@V?$_Umap_traits@V?$basic_string@DU?$char_traits@D@std@@V?$allocator@D@2@@std@@V12@V?$_Uhash_compare@V?$basic_string@DU?$char_traits@D@std@@V?$allocator@D@2@@std@@U?$hash@V?$basic_string@DU?$char_traits@D@std@@V?$allocator@D@2@@std@@@2@U?$equal_to@V?$basic_string@DU?$char_traits@D@std@@V?$allocator@D@2@@std@@@2@@2@V?$allocator@U?$pair@$$CBV?$basic_string@DU?$char_traits@D@std@@V?$allocator@D@2@@std@@V12@@std@@@2@$0A@@std@@@std@@IEAAXXZ
	?_Throw_bad_array_new_length@std@@YAXXZ
	?_Throw_bad_weak_ptr@std@@YAXXZ
	?_Throw_system_error@std@@YAXW4errc@1@@Z
	?_Throw_tree_length_error@std@@YAXXZ
	?_Tidy@?$deque@VConnection@redis@sw@@V?$allocator@VConnection@redis@sw@@@std@@@std@@AEAAXXZ
	?_Tidy@?$vector@U?$pair@V?$basic_string@DU?$char_traits@D@std@@V?$allocator@D@2@@std@@H@std@@V?$allocator@U?$pair@V?$basic_string@DU?$char_traits@D@std@@V?$allocator@D@2@@std@@H@std@@@2@@std@@AEAAXXZ
	?_Tidy@?$vector@V?$shared_ptr@VRedis@redis@sw@@@std@@V?$allocator@V?$shared_ptr@VRedis@redis@sw@@@std@@@2@@std@@AEAAXXZ
	?_Umove@?$vector@V?$shared_ptr@VConnectionPool@redis@sw@@@std@@V?$allocator@V?$shared_ptr@VConnectionPool@redis@sw@@@std@@@2@@std@@AEAAPEAV?$shared_ptr@VConnectionPool@redis@sw@@@2@PEAV32@00@Z
	?_Umove@?$vector@V?$shared_ptr@VRedis@redis@sw@@@std@@V?$allocator@V?$shared_ptr@VRedis@redis@sw@@@std@@@2@@std@@AEAAPEAV?$shared_ptr@VRedis@redis@sw@@@2@PEAV32@00@Z
	?_Umove@?$vector@V?$unordered_map@V?$basic_string@DU?$char_traits@D@std@@V?$allocator@D@2@@std@@V12@U?$hash@V?$basic_string@DU?$char_traits@D@std@@V?$allocator@D@2@@std@@@2@U?$equal_to@V?$basic_string@DU?$char_traits@D@std@@V?$allocator@D@2@@std@@@2@V?$allocator@U?$pair@$$CBV?$basic_string@DU?$char_traits@D@std@@V?$allocator@D@2@@std@@V12@@std@@@2@@std@@V?$allocator@V?$unordered_map@V?$basic_string@DU?$char_traits@D@std@@V?$allocator@D@2@@std@@V12@U?$hash@V?$basic_string@DU?$char_traits@D@std@@V?$allocator@D@2@@std@@@2@U?$equal_to@V?$basic_string@DU?$char_traits@D@std@@V?$allocator@D@2@@std@@@2@V?$allocator@U?$pair@$$CBV?$basic_string@DU?$char_traits@D@std@@V?$allocator@D@2@@std@@V12@@std@@@2@@std@@@2@@std@@AEAAPEAV?$unordered_map@V?$basic_string@DU?$char_traits@D@std@@V?$allocator@D@2@@std@@V12@U?$hash@V?$basic_string@DU?$char_traits@D@std@@V?$allocator@D@2@@std@@@2@U?$equal_to@V?$basic_string@DU?$char_traits@D@std@@V?$allocator@D@2@@std@@@2@V?$allocator@U?$pair@$$CBV?$basic_string@DU?$char_traits@D@std@@V?$allocator@D@2@@std@@V12@@std@@@2@@2@PEAV32@00@Z
	?_Umove@?$vector@VTask@LockWatcher@redis@sw@@V?$allocator@VTask@LockWatcher@redis@sw@@@std@@@std@@AEAAPEAVTask@LockWatcher@redis@sw@@PEAV3456@00@Z
	?_Unchecked_erase@?$_Hash@V?$_Uset_traits@_KV?$_Uhash_compare@_KU?$hash@_K@std@@U?$equal_to@_K@2@@std@@V?$allocator@_K@2@$0A@@std@@@std@@AEAAPEAU?$_List_node@_KPEAX@2@PEAU32@QEAU32@@Z
	?_Xlen@?$deque@VConnection@redis@sw@@V?$allocator@VConnection@redis@sw@@@std@@@std@@AEBAXXZ
	?_Xlen_string@std@@YAXXZ
	?_Xlength@?$vector@PEBDV?$allocator@PEBD@std@@@std@@CAXXZ
	?_Xlength@?$vector@UNode@redis@sw@@V?$allocator@UNode@redis@sw@@@std@@@std@@CAXXZ
	?_Xlength@?$vector@V?$basic_string@DU?$char_traits@D@std@@V?$allocator@D@2@@std@@V?$allocator@V?$basic_string@DU?$char_traits@D@std@@V?$allocator@D@2@@std@@@2@@std@@CAXXZ
	?_Xlength@?$vector@V?$shared_ptr@VConnectionPool@redis@sw@@@std@@V?$allocator@V?$shared_ptr@VConnectionPool@redis@sw@@@std@@@2@@std@@CAXXZ
	?_Xlength@?$vector@V?$shared_ptr@VRedis@redis@sw@@@std@@V?$allocator@V?$shared_ptr@VRedis@redis@sw@@@std@@@2@@std@@CAXXZ
	?_Xlength@?$vector@V?$unique_ptr@UredisReply@@UReplyDeleter@redis@sw@@@std@@V?$allocator@V?$unique_ptr@UredisReply@@UReplyDeleter@redis@sw@@@std@@@2@@std@@CAXXZ
	?_Xlength@?$vector@V?$unordered_map@V?$basic_string@DU?$char_traits@D@std@@V?$allocator@D@2@@std@@V12@U?$hash@V?$basic_string@DU?$char_traits@D@std@@V?$allocator@D@2@@std@@@2@U?$equal_to@V?$basic_string@DU?$char_traits@D@std@@V?$allocator@D@2@@std@@@2@V?$allocator@U?$pair@$$CBV?$basic_string@DU?$char_traits@D@std@@V?$allocator@D@2@@std@@V12@@std@@@2@@std@@V?$allocator@V?$unordered_map@V?$basic_string@DU?$char_traits@D@std@@V?$allocator@D@2@@std@@V12@U?$hash@V?$basic_string@DU?$char_traits@D@std@@V?$allocator@D@2@@std@@@2@U?$equal_to@V?$basic_string@DU?$char_traits@D@std@@V?$allocator@D@2@@std@@@2@V?$allocator@U?$pair@$$CBV?$basic_string@DU?$char_traits@D@std@@V?$allocator@D@2@@std@@V12@@std@@@2@@std@@@2@@std@@CAXXZ
	?_Xlength@?$vector@VTask@LockWatcher@redis@sw@@V?$allocator@VTask@LockWatcher@redis@sw@@@std@@@std@@CAXXZ
	?_Xlength@?$vector@_KV?$allocator@_K@std@@@std@@CAXXZ
	?_Xran@?$_String_val@U?$_Simple_types@D@std@@@std@@SAXXZ
	?_add_node@ShardsPool@redis@sw@@AEAA?AV?$_List_iterator@V?$_List_val@U?$_List_simple_types@U?$pair@$$CBUNode@redis@sw@@V?$shared_ptr@VConnectionPool@redis@sw@@@std@@@std@@@std@@@std@@@std@@AEBUNode@23@@Z
	?_append@CmdArgs@redis@sw@@AEAAAEAV123@V?$basic_string@DU?$char_traits@D@std@@V?$allocator@D@2@@std@@@Z
	?_asking@RedisCluster@redis@sw@@AEAAXAEAVConnection@23@@Z
	?_auth@Connection@redis@sw@@AEAAXXZ
	?_check_connection@Subscriber@redis@sw@@AEAAXXZ
	?_clean_up@?$QueuedRedis@VPipelineImpl@redis@sw@@@redis@sw@@AEAAXXZ
	?_clean_up@?$QueuedRedis@VTransactionImpl@redis@sw@@@redis@sw@@AEAAXXZ
	?_close_transaction@TransactionImpl@redis@sw@@AEAAXXZ
	?_cluster_slots@ShardsPool@redis@sw@@AEBA?AV?$map@USlotRange@redis@sw@@UNode@23@U?$less@USlotRange@redis@sw@@@std@@V?$allocator@U?$pair@$$CBUSlotRange@redis@sw@@UNode@23@@std@@@6@@std@@AEAVConnection@23@@Z
	?_cluster_slots_command@ShardsPool@redis@sw@@AEBA?AV?$unique_ptr@UredisReply@@UReplyDeleter@redis@sw@@@std@@AEAVConnection@23@@Z
	?_connect@Connector@Connection@redis@sw@@AEBA?AV?$unique_ptr@UredisContext@@UContextDeleter@Connection@redis@sw@@@std@@XZ
	?_connect_redis@Sentinel@redis@sw@@AEAA?AVConnection@23@AEBUNode@23@UConnectionOptions@23@@Z
	?_connect_tcp@Connector@Connection@redis@sw@@AEBAPEAUredisContext@@XZ
	?_connect_unix@Connector@Connection@redis@sw@@AEBAPEAUredisContext@@XZ
	?_connection@?$QueuedRedis@VTransactionImpl@redis@sw@@@redis@sw@@AEAAAEAVConnection@23@XZ
	?_connection_options@ShardsPool@redis@sw@@AEAA?AUConnectionOptions@23@_K@Z
	?_context@Connection@redis@sw@@AEAAPEAUredisContext@@XZ
	?_create@ConnectionPool@redis@sw@@AEAA?AVConnection@23@AEAVSimpleSentinel@23@AEBUConnectionOptions@23@@Z
	?_discard@TransactionImpl@redis@sw@@AEAAXAEAVConnection@23@@Z
	?_do_async_update@ShardsPool@redis@sw@@AEAAXXZ
	?_enable_keep_alive@Connector@Connection@redis@sw@@AEBAXAEAUredisContext@@@Z
	?_enable_readonly@Connection@redis@sw@@AEAAXXZ
	?_err_info@ParseError@redis@sw@@AEBA?AV?$basic_string@DU?$char_traits@D@std@@V?$allocator@D@2@@std@@AEBV45@AEBUredisReply@@@Z
	?_exec@TransactionImpl@redis@sw@@AEAA?AV?$vector@V?$unique_ptr@UredisReply@@UReplyDeleter@redis@sw@@@std@@V?$allocator@V?$unique_ptr@UredisReply@@UReplyDeleter@redis@sw@@@std@@@2@@std@@AEAVConnection@23@@Z
	?_extend_lock_instance@RedLockMutexVessel@redis@sw@@AEAA_NAEAVRedis@23@AEBV?$basic_string@DU?$char_traits@D@std@@V?$allocator@D@2@@std@@1AEBV?$duration@_JU?$ratio@$00$0DOI@@std@@@chrono@6@@Z
	?_extend_lock_master@RedMutexTx@redis@sw@@AEAA_NAEAVRedis@23@AEBV?$basic_string@DU?$char_traits@D@std@@V?$allocator@D@2@@std@@AEBV?$duration@_JU?$ratio@$00$0DOI@@std@@@chrono@6@@Z
	?_fetch@ConnectionPool@redis@sw@@AEAA?AVConnection@23@AEAV?$unique_lock@Vmutex@std@@@std@@@Z
	?_fetch@ConnectionPool@redis@sw@@AEAA?AVConnection@23@XZ
	?_fetch@ShardsPool@redis@sw@@AEAA?AV?$shared_ptr@VConnectionPool@redis@sw@@@std@@_K@Z
	?_fetch_tasks@LockWatcher@redis@sw@@AEAA?AV?$vector@VTask@LockWatcher@redis@sw@@V?$allocator@VTask@LockWatcher@redis@sw@@@std@@@std@@XZ
	?_get_master_addr_by_name@Sentinel@redis@sw@@AEAA?AUNode@23@AEAVConnection@23@AEBV?$basic_string_view@DU?$char_traits@D@std@@@std@@@Z
	?_get_pool@ShardsPool@redis@sw@@AEAAAEAV?$shared_ptr@VConnectionPool@redis@sw@@@std@@_K@Z
	?_get_queued_replies@TransactionImpl@redis@sw@@AEAAXAEAVConnection@23@_K@Z
	?_get_queued_reply@TransactionImpl@redis@sw@@AEAAXAEAVConnection@23@@Z
	?_get_role@Sentinel@redis@sw@@AEAA?AW4Role@23@AEAVConnection@23@@Z
	?_get_slave_addr_by_name@Sentinel@redis@sw@@AEAA?AV?$vector@UNode@redis@sw@@V?$allocator@UNode@redis@sw@@@std@@@std@@AEAVConnection@23@AEBV?$basic_string_view@DU?$char_traits@D@std@@@5@@Z
	?_handle_message@Subscriber@redis@sw@@AEAAXAEAUredisReply@@@Z
	?_handle_meta@Subscriber@redis@sw@@AEAAXW4MsgType@123@AEAUredisReply@@@Z
	?_handle_pmessage@Subscriber@redis@sw@@AEAAXAEAUredisReply@@@Z
	?_handle_smessage@Subscriber@redis@sw@@AEAAXAEAUredisReply@@@Z
	?_init_pool@ShardsPool@redis@sw@@AEAAXAEBV?$map@USlotRange@redis@sw@@UNode@23@U?$less@USlotRange@redis@sw@@@std@@V?$allocator@U?$pair@$$CBUSlotRange@redis@sw@@UNode@23@@std@@@6@@std@@@Z
	?_invalidate@?$QueuedRedis@VTransactionImpl@redis@sw@@@redis@sw@@AEAAXXZ
	?_lock_instance@RedLockMutexVessel@redis@sw@@AEAA_NAEAVRedis@23@AEBV?$basic_string@DU?$char_traits@D@std@@V?$allocator@D@2@@std@@1AEBV?$duration@_JU?$ratio@$00$0DOI@@std@@@chrono@6@@Z
	?_move@ConnectionPool@redis@sw@@AEAAX$$QEAV123@@Z
	?_msg_type@Subscriber@redis@sw@@AEBA?AW4MsgType@123@AEBV?$basic_string@DU?$char_traits@D@std@@V?$allocator@D@2@@std@@@Z
	?_msg_type@Subscriber@redis@sw@@AEBA?AW4MsgType@123@PEAUredisReply@@@Z
	?_need_reconnect@ConnectionPool@redis@sw@@AEBA_NAEBVConnection@23@AEBV?$duration@_JU?$ratio@$00$0DOI@@std@@@chrono@std@@1@Z
	?_next_schedule_time@LockWatcher@redis@sw@@AEAA?AV?$duration@_JU?$ratio@$00$0DOI@@std@@@chrono@std@@XZ
	?_open_transaction@TransactionImpl@redis@sw@@AEAAXAEAVConnection@23@@Z
	?_parse_bool_option@Uri@redis@sw@@AEBA_NAEBV?$basic_string@DU?$char_traits@D@std@@V?$allocator@D@2@@std@@@Z
	?_parse_error@RedirectionError@redis@sw@@AEBA?AU?$pair@_KUNode@redis@sw@@@std@@AEBV?$basic_string@DU?$char_traits@D@std@@V?$allocator@D@2@@5@@Z
	?_parse_int_option@Uri@redis@sw@@AEBAHAEBV?$basic_string@DU?$char_traits@D@std@@V?$allocator@D@2@@std@@@Z
	?_parse_node@ShardsPool@redis@sw@@AEBA?AUNode@23@PEAUredisReply@@@Z
	?_parse_options@Sentinel@redis@sw@@AEBA?AV?$list@UConnectionOptions@redis@sw@@V?$allocator@UConnectionOptions@redis@sw@@@std@@@std@@AEBUSentinelOptions@23@@Z
	?_parse_parameters@Uri@redis@sw@@AEAAXAEBV?$basic_string@DU?$char_traits@D@std@@V?$allocator@D@2@@std@@@Z
	?_parse_reply@ShardsPool@redis@sw@@AEBA?AV?$map@USlotRange@redis@sw@@UNode@23@U?$less@USlotRange@redis@sw@@@std@@V?$allocator@U?$pair@$$CBUSlotRange@redis@sw@@UNode@23@@std@@@6@@std@@AEAUredisReply@@@Z
	?_parse_slave_info@Sentinel@redis@sw@@AEBA?AV?$vector@UNode@redis@sw@@V?$allocator@UNode@redis@sw@@@std@@@std@@AEAUredisReply@@@Z
	?_parse_slot@ShardsPool@redis@sw@@AEBA_KPEAUredisReply@@@Z
	?_parse_slot_info@ShardsPool@redis@sw@@AEBA?AU?$pair@USlotRange@redis@sw@@UNode@23@@std@@AEAUredisReply@@@Z
	?_parse_timeout_option@Uri@redis@sw@@AEBA?AV?$duration@_JU?$ratio@$00$0DOI@@std@@@chrono@std@@AEBV?$basic_string@DU?$char_traits@D@std@@V?$allocator@D@2@@6@@Z
	?_parse_uri@Uri@redis@sw@@AEAAXAEBV?$basic_string@DU?$char_traits@D@std@@V?$allocator@D@2@@std@@@Z
	?_random@ShardsPool@redis@sw@@AEBA_K_K0@Z
	?_ready_tasks@LockWatcher@redis@sw@@AEAA?AV?$vector@VTask@LockWatcher@redis@sw@@V?$allocator@VTask@LockWatcher@redis@sw@@@std@@@std@@XZ
	?_reschedule_tasks@LockWatcher@redis@sw@@AEAAXAEAV?$vector@VTask@LockWatcher@redis@sw@@V?$allocator@VTask@LockWatcher@redis@sw@@@std@@@std@@@Z
	?_reset@?$QueuedRedis@VTransactionImpl@redis@sw@@@redis@sw@@AEAAX_N@Z
	?_reset@RedMutexImpl@redis@sw@@AEAAXXZ
	?_rewrite_replies@?$QueuedRedis@VTransactionImpl@redis@sw@@@redis@sw@@AEBAXAEAV?$vector@V?$unique_ptr@UredisReply@@UReplyDeleter@redis@sw@@@std@@V?$allocator@V?$unique_ptr@UredisReply@@UReplyDeleter@redis@sw@@@std@@@2@@std@@@Z
	?_run@LockWatcher@redis@sw@@AEAAXXZ
	?_run@ShardsPool@redis@sw@@AEAAXXZ
	?_run_tasks@LockWatcher@redis@sw@@AEAA?AV?$optional@V?$vector@VTask@LockWatcher@redis@sw@@V?$allocator@VTask@LockWatcher@redis@sw@@@std@@@std@@@std@@V?$vector@VTask@LockWatcher@redis@sw@@V?$allocator@VTask@LockWatcher@redis@sw@@@std@@@5@@Z
	?_sanity_check@?$QueuedRedis@VTransactionImpl@redis@sw@@@redis@sw@@AEAAXXZ
	?_sanity_check@RedLockMutexVessel@redis@sw@@AEAAXXZ
	?_sanity_check@RedMutexTx@redis@sw@@AEAAXXZ
	?_select_db@Connection@redis@sw@@AEAAXXZ
	?_server_info@ConnectionOptions@redis@sw@@QEBA?AV?$basic_string@DU?$char_traits@D@std@@V?$allocator@D@2@@std@@XZ
	?_set_auth_opts@Uri@redis@sw@@AEBAXAEBV?$basic_string@DU?$char_traits@D@std@@V?$allocator@D@2@@std@@AEAUConnectionOptions@23@@Z
	?_set_name@Connection@redis@sw@@AEAAXXZ
	?_set_option@Uri@redis@sw@@AEAAXAEBV?$basic_string@DU?$char_traits@D@std@@V?$allocator@D@2@@std@@0@Z
	?_set_options@Connection@redis@sw@@AEAAXXZ
	?_set_resp_version@Connection@redis@sw@@AEAAXXZ
	?_set_socket_timeout@Connector@Connection@redis@sw@@AEBAXAEAUredisContext@@@Z
	?_set_tcp_opts@Uri@redis@sw@@AEBAXAEBV?$basic_string@DU?$char_traits@D@std@@V?$allocator@D@2@@std@@AEAUConnectionOptions@23@@Z
	?_set_unix_opts@Uri@redis@sw@@AEBAXAEBV?$basic_string@DU?$char_traits@D@std@@V?$allocator@D@2@@std@@AEAUConnectionOptions@23@@Z
	?_slot@ShardsPool@redis@sw@@AEBA_KAEBV?$basic_string_view@DU?$char_traits@D@std@@@std@@@Z
	?_slot@ShardsPool@redis@sw@@AEBA_KXZ
	?_split@Uri@redis@sw@@AEBA?AV?$vector@V?$basic_string@DU?$char_traits@D@std@@V?$allocator@D@2@@std@@V?$allocator@V?$basic_string@DU?$char_traits@D@std@@V?$allocator@D@2@@std@@@2@@std@@AEBV?$basic_string@DU?$char_traits@D@std@@V?$allocator@D@2@@5@0@Z
	?_split_path@Uri@redis@sw@@AEBA?AV?$tuple@V?$basic_string@DU?$char_traits@D@std@@V?$allocator@D@2@@std@@HV12@@std@@AEBV?$basic_string@DU?$char_traits@D@std@@V?$allocator@D@2@@5@@Z
	?_split_uri@Uri@redis@sw@@AEBA?AV?$tuple@V?$basic_string@DU?$char_traits@D@std@@V?$allocator@D@2@@std@@V12@V12@@std@@AEBV?$basic_string@DU?$char_traits@D@std@@V?$allocator@D@2@@5@@Z
	?_to_msg@StopIterError@redis@sw@@AEBA?AV?$basic_string@DU?$char_traits@D@std@@V?$allocator@D@2@@std@@AEBV?$vector@V?$basic_string@DU?$char_traits@D@std@@V?$allocator@D@2@@std@@V?$allocator@V?$basic_string@DU?$char_traits@D@std@@V?$allocator@D@2@@std@@@2@@5@@Z
	?_to_timeval@Connector@Connection@redis@sw@@AEBA?AUtimeval@@AEBV?$duration@_JU?$ratio@$00$0DOI@@std@@@chrono@std@@@Z
	?_try_lock@RedMutexTx@redis@sw@@AEAA_NAEBV?$basic_string@DU?$char_traits@D@std@@V?$allocator@D@2@@std@@AEBV?$duration@_JU?$ratio@$00$0DOI@@std@@@chrono@5@@Z
	?_try_lock_master@RedMutexTx@redis@sw@@AEAA_NAEAVRedis@23@AEBV?$basic_string@DU?$char_traits@D@std@@V?$allocator@D@2@@std@@AEBV?$duration@_JU?$ratio@$00$0DOI@@std@@@chrono@6@@Z
	?_unlock_instance@RedLockMutexVessel@redis@sw@@AEAAXAEAVRedis@23@AEBV?$basic_string@DU?$char_traits@D@std@@V?$allocator@D@2@@std@@1@Z
	?_unlock_master@RedMutexTx@redis@sw@@AEAAXAEAVRedis@23@AEBV?$basic_string@DU?$char_traits@D@std@@V?$allocator@D@2@@std@@@Z
	?_update@Task@LockWatcher@redis@sw@@AEAAXAEBV?$shared_ptr@VRedMutexImpl@redis@sw@@@std@@@Z
	?_wait_for_connection@ConnectionPool@redis@sw@@AEAAXAEAV?$unique_lock@Vmutex@std@@@std@@@Z
	?_watch@LockWatcher@redis@sw@@AEAAXVTask@123@@Z
	?allocate@?$allocator@D@std@@QEAAPEAD_K@Z
	?allocate@?$allocator@V?$shared_ptr@VConnectionPool@redis@sw@@@std@@@std@@QEAAPEAV?$shared_ptr@VConnectionPool@redis@sw@@@2@_K@Z
	?allocate@?$allocator@V?$shared_ptr@VRedis@redis@sw@@@std@@@std@@QEAAPEAV?$shared_ptr@VRedis@redis@sw@@@2@_K@Z
	?allocate@?$allocator@VTask@LockWatcher@redis@sw@@@std@@QEAAPEAVTask@LockWatcher@redis@sw@@_K@Z
	?append@?$basic_string@DU?$char_traits@D@std@@V?$allocator@D@2@@std@@QEAAAEAV12@QEBD_K@Z
	?append@Redis@redis@sw@@QEAA_JAEBV?$basic_string_view@DU?$char_traits@D@std@@@std@@0@Z
	?append@RedisCluster@redis@sw@@QEAA_JAEBV?$basic_string_view@DU?$char_traits@D@std@@@std@@0@Z
	?append@cmd@redis@sw@@YAXAEAVConnection@23@AEBV?$basic_string_view@DU?$char_traits@D@std@@@std@@1@Z
	?assign@?$basic_string@DU?$char_traits@D@std@@V?$allocator@D@2@@std@@QEAAAEAV12@QEBD_K@Z
	?assign@?$basic_string@DU?$char_traits@D@std@@V?$allocator@D@2@@std@@QEAAAEAV12@_KD@Z
	?async_update@ShardsPool@redis@sw@@QEAAXXZ
	?auth@Redis@redis@sw@@QEAAXAEBV?$basic_string_view@DU?$char_traits@D@std@@@std@@0@Z
	?auth@Redis@redis@sw@@QEAAXAEBV?$basic_string_view@DU?$char_traits@D@std@@@std@@@Z
	?auth@cmd@redis@sw@@YAXAEAVConnection@23@AEBV?$basic_string_view@DU?$char_traits@D@std@@@std@@1@Z
	?auth@cmd@redis@sw@@YAXAEAVConnection@23@AEBV?$basic_string_view@DU?$char_traits@D@std@@@std@@@Z
	?auto_init@tls@redis@sw@@YAAEA_NXZ
	?bgrewriteaof@Redis@redis@sw@@QEAAXXZ
	?bgrewriteaof@cmd@redis@sw@@YAXAEAVConnection@23@@Z
	?bgsave@Redis@redis@sw@@QEAA?AV?$basic_string@DU?$char_traits@D@std@@V?$allocator@D@2@@std@@XZ
	?bgsave@cmd@redis@sw@@YAXAEAVConnection@23@@Z
	?bitcount@Redis@redis@sw@@QEAA_JAEBV?$basic_string_view@DU?$char_traits@D@std@@@std@@_J1@Z
	?bitcount@RedisCluster@redis@sw@@QEAA_JAEBV?$basic_string_view@DU?$char_traits@D@std@@@std@@_J1@Z
	?bitcount@cmd@redis@sw@@YAXAEAVConnection@23@AEBV?$basic_string_view@DU?$char_traits@D@std@@@std@@_J2@Z
	?bitop@Redis@redis@sw@@QEAA_JW4BitOp@23@AEBV?$basic_string_view@DU?$char_traits@D@std@@@std@@1@Z
	?bitop@RedisCluster@redis@sw@@QEAA_JW4BitOp@23@AEBV?$basic_string_view@DU?$char_traits@D@std@@@std@@1@Z
	?bitop@cmd@redis@sw@@YAXAEAVConnection@23@W4BitOp@23@AEBV?$basic_string_view@DU?$char_traits@D@std@@@std@@2@Z
	?bitpos@Redis@redis@sw@@QEAA_JAEBV?$basic_string_view@DU?$char_traits@D@std@@@std@@_J11@Z
	?bitpos@RedisCluster@redis@sw@@QEAA_JAEBV?$basic_string_view@DU?$char_traits@D@std@@@std@@_J11@Z
	?bitpos@cmd@redis@sw@@YAXAEAVConnection@23@AEBV?$basic_string_view@DU?$char_traits@D@std@@@std@@_J22@Z
	?blpop@Redis@redis@sw@@QEAA?AV?$optional@U?$pair@V?$basic_string@DU?$char_traits@D@std@@V?$allocator@D@2@@std@@V12@@std@@@std@@AEBV?$basic_string_view@DU?$char_traits@D@std@@@5@AEBV?$duration@_JU?$ratio@$00$00@std@@@chrono@5@@Z
	?blpop@Redis@redis@sw@@QEAA?AV?$optional@U?$pair@V?$basic_string@DU?$char_traits@D@std@@V?$allocator@D@2@@std@@V12@@std@@@std@@AEBV?$basic_string_view@DU?$char_traits@D@std@@@5@_J@Z
	?blpop@RedisCluster@redis@sw@@QEAA?AV?$optional@U?$pair@V?$basic_string@DU?$char_traits@D@std@@V?$allocator@D@2@@std@@V12@@std@@@std@@AEBV?$basic_string_view@DU?$char_traits@D@std@@@5@AEBV?$duration@_JU?$ratio@$00$00@std@@@chrono@5@@Z
	?blpop@RedisCluster@redis@sw@@QEAA?AV?$optional@U?$pair@V?$basic_string@DU?$char_traits@D@std@@V?$allocator@D@2@@std@@V12@@std@@@std@@AEBV?$basic_string_view@DU?$char_traits@D@std@@@5@_J@Z
	?blpop@cmd@redis@sw@@YAXAEAVConnection@23@AEBV?$basic_string_view@DU?$char_traits@D@std@@@std@@_J@Z
	?brpop@Redis@redis@sw@@QEAA?AV?$optional@U?$pair@V?$basic_string@DU?$char_traits@D@std@@V?$allocator@D@2@@std@@V12@@std@@@std@@AEBV?$basic_string_view@DU?$char_traits@D@std@@@5@AEBV?$duration@_JU?$ratio@$00$00@std@@@chrono@5@@Z
	?brpop@Redis@redis@sw@@QEAA?AV?$optional@U?$pair@V?$basic_string@DU?$char_traits@D@std@@V?$allocator@D@2@@std@@V12@@std@@@std@@AEBV?$basic_string_view@DU?$char_traits@D@std@@@5@_J@Z
	?brpop@RedisCluster@redis@sw@@QEAA?AV?$optional@U?$pair@V?$basic_string@DU?$char_traits@D@std@@V?$allocator@D@2@@std@@V12@@std@@@std@@AEBV?$basic_string_view@DU?$char_traits@D@std@@@5@AEBV?$duration@_JU?$ratio@$00$00@std@@@chrono@5@@Z
	?brpop@RedisCluster@redis@sw@@QEAA?AV?$optional@U?$pair@V?$basic_string@DU?$char_traits@D@std@@V?$allocator@D@2@@std@@V12@@std@@@std@@AEBV?$basic_string_view@DU?$char_traits@D@std@@@5@_J@Z
	?brpop@cmd@redis@sw@@YAXAEAVConnection@23@AEBV?$basic_string_view@DU?$char_traits@D@std@@@std@@_J@Z
	?brpoplpush@Redis@redis@sw@@QEAA?AV?$optional@V?$basic_string@DU?$char_traits@D@std@@V?$allocator@D@2@@std@@@std@@AEBV?$basic_string_view@DU?$char_traits@D@std@@@5@0_J@Z
	?brpoplpush@RedisCluster@redis@sw@@QEAA?AV?$optional@V?$basic_string@DU?$char_traits@D@std@@V?$allocator@D@2@@std@@@std@@AEBV?$basic_string_view@DU?$char_traits@D@std@@@5@0_J@Z
	?brpoplpush@cmd@redis@sw@@YAXAEAVConnection@23@AEBV?$basic_string_view@DU?$char_traits@D@std@@@std@@1_J@Z
	?bzpopmax@Redis@redis@sw@@QEAA?AV?$optional@V?$tuple@V?$basic_string@DU?$char_traits@D@std@@V?$allocator@D@2@@std@@V12@N@std@@@std@@AEBV?$basic_string_view@DU?$char_traits@D@std@@@5@_J@Z
	?bzpopmax@RedisCluster@redis@sw@@QEAA?AV?$optional@V?$tuple@V?$basic_string@DU?$char_traits@D@std@@V?$allocator@D@2@@std@@V12@N@std@@@std@@AEBV?$basic_string_view@DU?$char_traits@D@std@@@5@_J@Z
	?bzpopmax@cmd@redis@sw@@YAXAEAVConnection@23@AEBV?$basic_string_view@DU?$char_traits@D@std@@@std@@_J@Z
	?bzpopmin@Redis@redis@sw@@QEAA?AV?$optional@V?$tuple@V?$basic_string@DU?$char_traits@D@std@@V?$allocator@D@2@@std@@V12@N@std@@@std@@AEBV?$basic_string_view@DU?$char_traits@D@std@@@5@_J@Z
	?bzpopmin@RedisCluster@redis@sw@@QEAA?AV?$optional@V?$tuple@V?$basic_string@DU?$char_traits@D@std@@V?$allocator@D@2@@std@@V12@N@std@@@std@@AEBV?$basic_string_view@DU?$char_traits@D@std@@@5@_J@Z
	?bzpopmin@cmd@redis@sw@@YAXAEAVConnection@23@AEBV?$basic_string_view@DU?$char_traits@D@std@@@std@@_J@Z
	?clone@ConnectionPool@redis@sw@@QEAA?AV123@XZ
	?connect@Connector@Connection@redis@sw@@QEBA?AV?$unique_ptr@UredisContext@@UContextDeleter@Connection@redis@sw@@@std@@XZ
	?connection_options@ConnectionPool@redis@sw@@QEAA?AUConnectionOptions@23@XZ
	?connection_options@ShardsPool@redis@sw@@QEAA?AUConnectionOptions@23@AEBV?$basic_string_view@DU?$char_traits@D@std@@@std@@@Z
	?connection_options@ShardsPool@redis@sw@@QEAA?AUConnectionOptions@23@XZ
	?consume@Subscriber@redis@sw@@QEAAXXZ
	?count@?$duration@_JU?$ratio@$00$0DOI@@std@@@chrono@std@@QEBA_JXZ
	?crc16@redis@sw@@YAGPEBDH@Z
	?create@ConnectionPool@redis@sw@@QEAA?AVConnection@23@XZ
	?create@SimpleSentinel@redis@sw@@QEAA?AVConnection@23@AEBUConnectionOptions@23@@Z
	?data@?$basic_string_view@DU?$char_traits@D@std@@@std@@QEBAPEBDXZ
	?dbsize@Redis@redis@sw@@QEAA_JXZ
	?dbsize@cmd@redis@sw@@YAXAEAVConnection@23@@Z
	?deallocate@?$allocator@D@std@@QEAAXQEAD_K@Z
	?deallocate@?$allocator@PEBD@std@@QEAAXQEAPEBD_K@Z
	?deallocate@?$allocator@UNode@redis@sw@@@std@@QEAAXQEAUNode@redis@sw@@_K@Z
	?deallocate@?$allocator@V?$basic_string@DU?$char_traits@D@std@@V?$allocator@D@2@@std@@@std@@QEAAXQEAV?$basic_string@DU?$char_traits@D@std@@V?$allocator@D@2@@2@_K@Z
	?deallocate@?$allocator@V?$shared_ptr@VConnectionPool@redis@sw@@@std@@@std@@QEAAXQEAV?$shared_ptr@VConnectionPool@redis@sw@@@2@_K@Z
	?deallocate@?$allocator@V?$shared_ptr@VRedis@redis@sw@@@std@@@std@@QEAAXQEAV?$shared_ptr@VRedis@redis@sw@@@2@_K@Z
	?deallocate@?$allocator@V?$unique_ptr@UredisReply@@UReplyDeleter@redis@sw@@@std@@@std@@QEAAXQEAV?$unique_ptr@UredisReply@@UReplyDeleter@redis@sw@@@2@_K@Z
	?deallocate@?$allocator@V?$unordered_map@V?$basic_string@DU?$char_traits@D@std@@V?$allocator@D@2@@std@@V12@U?$hash@V?$basic_string@DU?$char_traits@D@std@@V?$allocator@D@2@@std@@@2@U?$equal_to@V?$basic_string@DU?$char_traits@D@std@@V?$allocator@D@2@@std@@@2@V?$allocator@U?$pair@$$CBV?$basic_string@DU?$char_traits@D@std@@V?$allocator@D@2@@std@@V12@@std@@@2@@std@@@std@@QEAAXQEAV?$unordered_map@V?$basic_string@DU?$char_traits@D@std@@V?$allocator@D@2@@std@@V12@U?$hash@V?$basic_string@DU?$char_traits@D@std@@V?$allocator@D@2@@std@@@2@U?$equal_to@V?$basic_string@DU?$char_traits@D@std@@V?$allocator@D@2@@std@@@2@V?$allocator@U?$pair@$$CBV?$basic_string@DU?$char_traits@D@std@@V?$allocator@D@2@@std@@V12@@std@@@2@@2@_K@Z
	?deallocate@?$allocator@VTask@LockWatcher@redis@sw@@@std@@QEAAXQEAVTask@LockWatcher@redis@sw@@_K@Z
	?deallocate@?$allocator@_K@std@@QEAAXQEA_K_K@Z
	?decr@Redis@redis@sw@@QEAA_JAEBV?$basic_string_view@DU?$char_traits@D@std@@@std@@@Z
	?decr@RedisCluster@redis@sw@@QEAA_JAEBV?$basic_string_view@DU?$char_traits@D@std@@@std@@@Z
	?decr@cmd@redis@sw@@YAXAEAVConnection@23@AEBV?$basic_string_view@DU?$char_traits@D@std@@@std@@@Z
	?decrby@Redis@redis@sw@@QEAA_JAEBV?$basic_string_view@DU?$char_traits@D@std@@@std@@_J@Z
	?decrby@RedisCluster@redis@sw@@QEAA_JAEBV?$basic_string_view@DU?$char_traits@D@std@@@std@@_J@Z
	?decrby@cmd@redis@sw@@YAXAEAVConnection@23@AEBV?$basic_string_view@DU?$char_traits@D@std@@@std@@_J@Z
	?default_error_condition@error_category@std@@UEBA?AVerror_condition@2@H@Z
	?del@Redis@redis@sw@@QEAA_JAEBV?$basic_string_view@DU?$char_traits@D@std@@@std@@@Z
	?del@RedisCluster@redis@sw@@QEAA_JAEBV?$basic_string_view@DU?$char_traits@D@std@@@std@@@Z
	?del@cmd@redis@sw@@YAXAEAVConnection@23@AEBV?$basic_string_view@DU?$char_traits@D@std@@@std@@@Z
	?disable_auto_init@tls@redis@sw@@YAXXZ
	?discard@TransactionImpl@redis@sw@@QEAAXAEAVConnection@23@_K@Z
	?dump@Redis@redis@sw@@QEAA?AV?$optional@V?$basic_string@DU?$char_traits@D@std@@V?$allocator@D@2@@std@@@std@@AEBV?$basic_string_view@DU?$char_traits@D@std@@@5@@Z
	?dump@RedisCluster@redis@sw@@QEAA?AV?$optional@V?$basic_string@DU?$char_traits@D@std@@V?$allocator@D@2@@std@@@std@@AEBV?$basic_string_view@DU?$char_traits@D@std@@@5@@Z
	?dump@cmd@redis@sw@@YAXAEAVConnection@23@AEBV?$basic_string_view@DU?$char_traits@D@std@@@std@@@Z
	?echo@Redis@redis@sw@@QEAA?AV?$basic_string@DU?$char_traits@D@std@@V?$allocator@D@2@@std@@AEBV?$basic_string_view@DU?$char_traits@D@std@@@5@@Z
	?echo@cmd@redis@sw@@YAXAEAVConnection@23@AEBV?$basic_string_view@DU?$char_traits@D@std@@@std@@@Z
	?empty@?$vector@V?$basic_string@DU?$char_traits@D@std@@V?$allocator@D@2@@std@@V?$allocator@V?$basic_string@DU?$char_traits@D@std@@V?$allocator@D@2@@std@@@2@@std@@QEBA_NXZ
	?equivalent@error_category@std@@UEBA_NAEBVerror_code@2@H@Z
	?equivalent@error_category@std@@UEBA_NHAEBVerror_condition@2@@Z
	?exec@?$QueuedRedis@VTransactionImpl@redis@sw@@@redis@sw@@QEAA?AVQueuedReplies@23@XZ
	?exec@PipelineImpl@redis@sw@@QEAA?AV?$vector@V?$unique_ptr@UredisReply@@UReplyDeleter@redis@sw@@@std@@V?$allocator@V?$unique_ptr@UredisReply@@UReplyDeleter@redis@sw@@@std@@@2@@std@@AEAVConnection@23@_K@Z
	?exec@TransactionImpl@redis@sw@@QEAA?AV?$vector@V?$unique_ptr@UredisReply@@UReplyDeleter@redis@sw@@@std@@V?$allocator@V?$unique_ptr@UredisReply@@UReplyDeleter@redis@sw@@@std@@@2@@std@@AEAVConnection@23@_K@Z
	?exists@Redis@redis@sw@@QEAA_JAEBV?$basic_string_view@DU?$char_traits@D@std@@@std@@@Z
	?exists@RedisCluster@redis@sw@@QEAA_JAEBV?$basic_string_view@DU?$char_traits@D@std@@@std@@@Z
	?exists@cmd@redis@sw@@YAXAEAVConnection@23@AEBV?$basic_string_view@DU?$char_traits@D@std@@@std@@@Z
	?expire@Redis@redis@sw@@QEAA_NAEBV?$basic_string_view@DU?$char_traits@D@std@@@std@@_J@Z
	?expire@RedisCluster@redis@sw@@QEAA_NAEBV?$basic_string_view@DU?$char_traits@D@std@@@std@@_J@Z
	?expire@cmd@redis@sw@@YAXAEAVConnection@23@AEBV?$basic_string_view@DU?$char_traits@D@std@@@std@@_J@Z
	?expireat@Redis@redis@sw@@QEAA_NAEBV?$basic_string_view@DU?$char_traits@D@std@@@std@@_J@Z
	?expireat@RedisCluster@redis@sw@@QEAA_NAEBV?$basic_string_view@DU?$char_traits@D@std@@@std@@_J@Z
	?expireat@cmd@redis@sw@@YAXAEAVConnection@23@AEBV?$basic_string_view@DU?$char_traits@D@std@@@std@@_J@Z
	?extend_lock@RedLockMutexVessel@redis@sw@@QEAA?AULockInfo@123@AEBU4123@AEBV?$duration@_JU?$ratio@$00$0DOI@@std@@@chrono@std@@N@Z
	?extend_lock@RedMutexImpl@redis@sw@@QEAA_NXZ
	?extend_lock@RedMutexTx@redis@sw@@QEAA?AV?$duration@_JU?$ratio@$00$0DOI@@std@@@chrono@std@@AEBV?$basic_string@DU?$char_traits@D@std@@V?$allocator@D@2@@6@AEBV456@@Z
	?extend_lock@RedMutexTx@redis@sw@@QEAA?AV?$duration@_JU?$ratio@$00$0DOI@@std@@@chrono@std@@AEBV?$basic_string@DU?$char_traits@D@std@@V?$allocator@D@2@@6@AEBV?$time_point@Usystem_clock@chrono@std@@V?$duration@_JU?$ratio@$00$0JIJGIA@@std@@@23@@56@@Z
	?fetch@ConnectionPool@redis@sw@@QEAA?AVConnection@23@XZ
	?fetch@ShardsPool@redis@sw@@QEAA?AV?$shared_ptr@VConnectionPool@redis@sw@@@std@@AEBUNode@23@@Z
	?fetch@ShardsPool@redis@sw@@QEAA?AV?$shared_ptr@VConnectionPool@redis@sw@@@std@@AEBV?$basic_string_view@DU?$char_traits@D@std@@@5@@Z
	?fetch@ShardsPool@redis@sw@@QEAA?AV?$shared_ptr@VConnectionPool@redis@sw@@@std@@XZ
	?flushall@Redis@redis@sw@@QEAAX_N@Z
	?flushall@cmd@redis@sw@@YAXAEAVConnection@23@_N@Z
	?flushdb@Redis@redis@sw@@QEAAX_N@Z
	?flushdb@cmd@redis@sw@@YAXAEAVConnection@23@_N@Z
	?geoadd@Redis@redis@sw@@QEAA_JAEBV?$basic_string_view@DU?$char_traits@D@std@@@std@@AEBV?$tuple@V?$basic_string_view@DU?$char_traits@D@std@@@std@@NN@5@@Z
	?geoadd@RedisCluster@redis@sw@@QEAA_JAEBV?$basic_string_view@DU?$char_traits@D@std@@@std@@AEBV?$tuple@V?$basic_string_view@DU?$char_traits@D@std@@@std@@NN@5@@Z
	?geoadd@cmd@redis@sw@@YAXAEAVConnection@23@AEBV?$basic_string_view@DU?$char_traits@D@std@@@std@@AEBV?$tuple@V?$basic_string_view@DU?$char_traits@D@std@@@std@@NN@6@@Z
	?geodist@Redis@redis@sw@@QEAA?AV?$optional@N@std@@AEBV?$basic_string_view@DU?$char_traits@D@std@@@5@00W4GeoUnit@23@@Z
	?geodist@RedisCluster@redis@sw@@QEAA?AV?$optional@N@std@@AEBV?$basic_string_view@DU?$char_traits@D@std@@@5@00W4GeoUnit@23@@Z
	?geodist@cmd@redis@sw@@YAXAEAVConnection@23@AEBV?$basic_string_view@DU?$char_traits@D@std@@@std@@11W4GeoUnit@23@@Z
	?geohash@Redis@redis@sw@@QEAA?AV?$optional@V?$basic_string@DU?$char_traits@D@std@@V?$allocator@D@2@@std@@@std@@AEBV?$basic_string_view@DU?$char_traits@D@std@@@5@0@Z
	?geohash@RedisCluster@redis@sw@@QEAA?AV?$optional@V?$basic_string@DU?$char_traits@D@std@@V?$allocator@D@2@@std@@@std@@AEBV?$basic_string_view@DU?$char_traits@D@std@@@5@0@Z
	?geohash@cmd@redis@sw@@YAXAEAVConnection@23@AEBV?$basic_string_view@DU?$char_traits@D@std@@@std@@1@Z
	?geopos@Redis@redis@sw@@QEAA?AV?$optional@U?$pair@NN@std@@@std@@AEBV?$basic_string_view@DU?$char_traits@D@std@@@5@0@Z
	?geopos@RedisCluster@redis@sw@@QEAA?AV?$optional@U?$pair@NN@std@@@std@@AEBV?$basic_string_view@DU?$char_traits@D@std@@@5@0@Z
	?geopos@cmd@redis@sw@@YAXAEAVConnection@23@AEBV?$basic_string_view@DU?$char_traits@D@std@@@std@@1@Z
	?georadius@Redis@redis@sw@@QEAA?AV?$optional@_J@std@@AEBV?$basic_string_view@DU?$char_traits@D@std@@@5@AEBU?$pair@NN@5@NW4GeoUnit@23@0_N_J@Z
	?georadius@RedisCluster@redis@sw@@QEAA?AV?$optional@_J@std@@AEBV?$basic_string_view@DU?$char_traits@D@std@@@5@AEBU?$pair@NN@5@NW4GeoUnit@23@0_N_J@Z
	?georadius@cmd@redis@sw@@YAXAEAVConnection@23@AEBV?$basic_string_view@DU?$char_traits@D@std@@@std@@AEBU?$pair@NN@6@NW4GeoUnit@23@_J_N555@Z
	?georadius_store@cmd@redis@sw@@YAXAEAVConnection@23@AEBV?$basic_string_view@DU?$char_traits@D@std@@@std@@AEBU?$pair@NN@6@NW4GeoUnit@23@1_N_J@Z
	?georadiusbymember@Redis@redis@sw@@QEAA?AV?$optional@_J@std@@AEBV?$basic_string_view@DU?$char_traits@D@std@@@5@0NW4GeoUnit@23@0_N_J@Z
	?georadiusbymember@RedisCluster@redis@sw@@QEAA?AV?$optional@_J@std@@AEBV?$basic_string_view@DU?$char_traits@D@std@@@5@0NW4GeoUnit@23@0_N_J@Z
	?georadiusbymember@cmd@redis@sw@@YAXAEAVConnection@23@AEBV?$basic_string_view@DU?$char_traits@D@std@@@std@@1NW4GeoUnit@23@_J_N444@Z
	?georadiusbymember_store@cmd@redis@sw@@YAXAEAVConnection@23@AEBV?$basic_string_view@DU?$char_traits@D@std@@@std@@1NW4GeoUnit@23@1_N_J@Z
	?get@Redis@redis@sw@@QEAA?AV?$optional@V?$basic_string@DU?$char_traits@D@std@@V?$allocator@D@2@@std@@@std@@AEBV?$basic_string_view@DU?$char_traits@D@std@@@5@@Z
	?get@RedisCluster@redis@sw@@QEAA?AV?$optional@V?$basic_string@DU?$char_traits@D@std@@V?$allocator@D@2@@std@@@std@@AEBV?$basic_string_view@DU?$char_traits@D@std@@@5@@Z
	?get@cmd@redis@sw@@YAXAEAVConnection@23@AEBV?$basic_string_view@DU?$char_traits@D@std@@@std@@@Z
	?getbit@Redis@redis@sw@@QEAA_JAEBV?$basic_string_view@DU?$char_traits@D@std@@@std@@_J@Z
	?getbit@RedisCluster@redis@sw@@QEAA_JAEBV?$basic_string_view@DU?$char_traits@D@std@@@std@@_J@Z
	?getbit@cmd@redis@sw@@YAXAEAVConnection@23@AEBV?$basic_string_view@DU?$char_traits@D@std@@@std@@_J@Z
	?getrange@Redis@redis@sw@@QEAA?AV?$basic_string@DU?$char_traits@D@std@@V?$allocator@D@2@@std@@AEBV?$basic_string_view@DU?$char_traits@D@std@@@5@_J1@Z
	?getrange@RedisCluster@redis@sw@@QEAA?AV?$basic_string@DU?$char_traits@D@std@@V?$allocator@D@2@@std@@AEBV?$basic_string_view@DU?$char_traits@D@std@@@5@_J1@Z
	?getrange@cmd@redis@sw@@YAXAEAVConnection@23@AEBV?$basic_string_view@DU?$char_traits@D@std@@@std@@_J2@Z
	?getset@Redis@redis@sw@@QEAA?AV?$optional@V?$basic_string@DU?$char_traits@D@std@@V?$allocator@D@2@@std@@@std@@AEBV?$basic_string_view@DU?$char_traits@D@std@@@5@0@Z
	?getset@RedisCluster@redis@sw@@QEAA?AV?$optional@V?$basic_string@DU?$char_traits@D@std@@V?$allocator@D@2@@std@@@std@@AEBV?$basic_string_view@DU?$char_traits@D@std@@@5@0@Z
	?getset@cmd@redis@sw@@YAXAEAVConnection@23@AEBV?$basic_string_view@DU?$char_traits@D@std@@@std@@1@Z
	?hdel@Redis@redis@sw@@QEAA_JAEBV?$basic_string_view@DU?$char_traits@D@std@@@std@@0@Z
	?hdel@RedisCluster@redis@sw@@QEAA_JAEBV?$basic_string_view@DU?$char_traits@D@std@@@std@@0@Z
	?hdel@cmd@redis@sw@@YAXAEAVConnection@23@AEBV?$basic_string_view@DU?$char_traits@D@std@@@std@@1@Z
	?hexists@Redis@redis@sw@@QEAA_NAEBV?$basic_string_view@DU?$char_traits@D@std@@@std@@0@Z
	?hexists@RedisCluster@redis@sw@@QEAA_NAEBV?$basic_string_view@DU?$char_traits@D@std@@@std@@0@Z
	?hexists@cmd@redis@sw@@YAXAEAVConnection@23@AEBV?$basic_string_view@DU?$char_traits@D@std@@@std@@1@Z
	?hget@Redis@redis@sw@@QEAA?AV?$optional@V?$basic_string@DU?$char_traits@D@std@@V?$allocator@D@2@@std@@@std@@AEBV?$basic_string_view@DU?$char_traits@D@std@@@5@0@Z
	?hget@RedisCluster@redis@sw@@QEAA?AV?$optional@V?$basic_string@DU?$char_traits@D@std@@V?$allocator@D@2@@std@@@std@@AEBV?$basic_string_view@DU?$char_traits@D@std@@@5@0@Z
	?hget@cmd@redis@sw@@YAXAEAVConnection@23@AEBV?$basic_string_view@DU?$char_traits@D@std@@@std@@1@Z
	?hincrby@Redis@redis@sw@@QEAA_JAEBV?$basic_string_view@DU?$char_traits@D@std@@@std@@0_J@Z
	?hincrby@RedisCluster@redis@sw@@QEAA_JAEBV?$basic_string_view@DU?$char_traits@D@std@@@std@@0_J@Z
	?hincrby@cmd@redis@sw@@YAXAEAVConnection@23@AEBV?$basic_string_view@DU?$char_traits@D@std@@@std@@1_J@Z
	?hincrbyfloat@Redis@redis@sw@@QEAANAEBV?$basic_string_view@DU?$char_traits@D@std@@@std@@0N@Z
	?hincrbyfloat@RedisCluster@redis@sw@@QEAANAEBV?$basic_string_view@DU?$char_traits@D@std@@@std@@0N@Z
	?hincrbyfloat@cmd@redis@sw@@YAXAEAVConnection@23@AEBV?$basic_string_view@DU?$char_traits@D@std@@@std@@1N@Z
	?hlen@Redis@redis@sw@@QEAA_JAEBV?$basic_string_view@DU?$char_traits@D@std@@@std@@@Z
	?hlen@RedisCluster@redis@sw@@QEAA_JAEBV?$basic_string_view@DU?$char_traits@D@std@@@std@@@Z
	?hlen@cmd@redis@sw@@YAXAEAVConnection@23@AEBV?$basic_string_view@DU?$char_traits@D@std@@@std@@@Z
	?hset@Redis@redis@sw@@QEAA_JAEBV?$basic_string_view@DU?$char_traits@D@std@@@std@@00@Z
	?hset@Redis@redis@sw@@QEAA_JAEBV?$basic_string_view@DU?$char_traits@D@std@@@std@@AEBU?$pair@V?$basic_string_view@DU?$char_traits@D@std@@@std@@V12@@5@@Z
	?hset@RedisCluster@redis@sw@@QEAA_JAEBV?$basic_string_view@DU?$char_traits@D@std@@@std@@00@Z
	?hset@RedisCluster@redis@sw@@QEAA_JAEBV?$basic_string_view@DU?$char_traits@D@std@@@std@@AEBU?$pair@V?$basic_string_view@DU?$char_traits@D@std@@@std@@V12@@5@@Z
	?hset@cmd@redis@sw@@YAXAEAVConnection@23@AEBV?$basic_string_view@DU?$char_traits@D@std@@@std@@11@Z
	?hsetnx@Redis@redis@sw@@QEAA_NAEBV?$basic_string_view@DU?$char_traits@D@std@@@std@@00@Z
	?hsetnx@Redis@redis@sw@@QEAA_NAEBV?$basic_string_view@DU?$char_traits@D@std@@@std@@AEBU?$pair@V?$basic_string_view@DU?$char_traits@D@std@@@std@@V12@@5@@Z
	?hsetnx@RedisCluster@redis@sw@@QEAA_NAEBV?$basic_string_view@DU?$char_traits@D@std@@@std@@00@Z
	?hsetnx@RedisCluster@redis@sw@@QEAA_NAEBV?$basic_string_view@DU?$char_traits@D@std@@@std@@AEBU?$pair@V?$basic_string_view@DU?$char_traits@D@std@@@std@@V12@@5@@Z
	?hsetnx@cmd@redis@sw@@YAXAEAVConnection@23@AEBV?$basic_string_view@DU?$char_traits@D@std@@@std@@11@Z
	?hstrlen@Redis@redis@sw@@QEAA_JAEBV?$basic_string_view@DU?$char_traits@D@std@@@std@@0@Z
	?hstrlen@RedisCluster@redis@sw@@QEAA_JAEBV?$basic_string_view@DU?$char_traits@D@std@@@std@@0@Z
	?hstrlen@cmd@redis@sw@@YAXAEAVConnection@23@AEBV?$basic_string_view@DU?$char_traits@D@std@@@std@@1@Z
	?incr@Redis@redis@sw@@QEAA_JAEBV?$basic_string_view@DU?$char_traits@D@std@@@std@@@Z
	?incr@RedisCluster@redis@sw@@QEAA_JAEBV?$basic_string_view@DU?$char_traits@D@std@@@std@@@Z
	?incr@cmd@redis@sw@@YAXAEAVConnection@23@AEBV?$basic_string_view@DU?$char_traits@D@std@@@std@@@Z
	?incrby@Redis@redis@sw@@QEAA_JAEBV?$basic_string_view@DU?$char_traits@D@std@@@std@@_J@Z
	?incrby@RedisCluster@redis@sw@@QEAA_JAEBV?$basic_string_view@DU?$char_traits@D@std@@@std@@_J@Z
	?incrby@cmd@redis@sw@@YAXAEAVConnection@23@AEBV?$basic_string_view@DU?$char_traits@D@std@@@std@@_J@Z
	?incrbyfloat@Redis@redis@sw@@QEAANAEBV?$basic_string_view@DU?$char_traits@D@std@@@std@@N@Z
	?incrbyfloat@RedisCluster@redis@sw@@QEAANAEBV?$basic_string_view@DU?$char_traits@D@std@@@std@@N@Z
	?incrbyfloat@cmd@redis@sw@@YAXAEAVConnection@23@AEBV?$basic_string_view@DU?$char_traits@D@std@@@std@@N@Z
	?info@Redis@redis@sw@@QEAA?AV?$basic_string@DU?$char_traits@D@std@@V?$allocator@D@2@@std@@AEBV?$basic_string_view@DU?$char_traits@D@std@@@5@@Z
	?info@Redis@redis@sw@@QEAA?AV?$basic_string@DU?$char_traits@D@std@@V?$allocator@D@2@@std@@XZ
	?info@cmd@redis@sw@@YAXAEAVConnection@23@@Z
	?info@cmd@redis@sw@@YAXAEAVConnection@23@AEBV?$basic_string_view@DU?$char_traits@D@std@@@std@@@Z
	?is_flat_array@detail@reply@redis@sw@@YA_NAEAUredisReply@@@Z
	?lastsave@Redis@redis@sw@@QEAA_JXZ
	?lastsave@cmd@redis@sw@@YAXAEAVConnection@23@@Z
	?lindex@Redis@redis@sw@@QEAA?AV?$optional@V?$basic_string@DU?$char_traits@D@std@@V?$allocator@D@2@@std@@@std@@AEBV?$basic_string_view@DU?$char_traits@D@std@@@5@_J@Z
	?lindex@RedisCluster@redis@sw@@QEAA?AV?$optional@V?$basic_string@DU?$char_traits@D@std@@V?$allocator@D@2@@std@@@std@@AEBV?$basic_string_view@DU?$char_traits@D@std@@@5@_J@Z
	?lindex@cmd@redis@sw@@YAXAEAVConnection@23@AEBV?$basic_string_view@DU?$char_traits@D@std@@@std@@_J@Z
	?linsert@Redis@redis@sw@@QEAA_JAEBV?$basic_string_view@DU?$char_traits@D@std@@@std@@W4InsertPosition@23@00@Z
	?linsert@RedisCluster@redis@sw@@QEAA_JAEBV?$basic_string_view@DU?$char_traits@D@std@@@std@@W4InsertPosition@23@00@Z
	?linsert@cmd@redis@sw@@YAXAEAVConnection@23@AEBV?$basic_string_view@DU?$char_traits@D@std@@@std@@W4InsertPosition@23@11@Z
	?llen@Redis@redis@sw@@QEAA_JAEBV?$basic_string_view@DU?$char_traits@D@std@@@std@@@Z
	?llen@RedisCluster@redis@sw@@QEAA_JAEBV?$basic_string_view@DU?$char_traits@D@std@@@std@@@Z
	?llen@cmd@redis@sw@@YAXAEAVConnection@23@AEBV?$basic_string_view@DU?$char_traits@D@std@@@std@@@Z
	?lock@RedLockMutexVessel@redis@sw@@QEAA?AULockInfo@123@AEBV?$basic_string@DU?$char_traits@D@std@@V?$allocator@D@2@@std@@0AEBV?$duration@_JU?$ratio@$00$0DOI@@std@@@chrono@6@H1N@Z
	?lock@RedMutexImpl@redis@sw@@QEAAXXZ
	?lock_id@RedLockUtils@redis@sw@@SA?AV?$basic_string@DU?$char_traits@D@std@@V?$allocator@D@2@@std@@XZ
	?locked@RedMutexImpl@redis@sw@@QEAA_NXZ
	?lower@?$RightBoundedInterval@N@redis@sw@@QEBAAEBV?$basic_string@DU?$char_traits@D@std@@V?$allocator@D@2@@std@@XZ
	?lower@?$RightBoundedInterval@V?$basic_string@DU?$char_traits@D@std@@V?$allocator@D@2@@std@@@redis@sw@@QEBAAEBV?$basic_string@DU?$char_traits@D@std@@V?$allocator@D@2@@std@@XZ
	?lower@?$UnboundedInterval@N@redis@sw@@QEBAAEBV?$basic_string@DU?$char_traits@D@std@@V?$allocator@D@2@@std@@XZ
	?lower@?$UnboundedInterval@V?$basic_string@DU?$char_traits@D@std@@V?$allocator@D@2@@std@@@redis@sw@@QEBAAEBV?$basic_string@DU?$char_traits@D@std@@V?$allocator@D@2@@std@@XZ
	?lpop@Redis@redis@sw@@QEAA?AV?$optional@V?$basic_string@DU?$char_traits@D@std@@V?$allocator@D@2@@std@@@std@@AEBV?$basic_string_view@DU?$char_traits@D@std@@@5@@Z
	?lpop@RedisCluster@redis@sw@@QEAA?AV?$optional@V?$basic_string@DU?$char_traits@D@std@@V?$allocator@D@2@@std@@@std@@AEBV?$basic_string_view@DU?$char_traits@D@std@@@5@@Z
	?lpop@cmd@redis@sw@@YAXAEAVConnection@23@AEBV?$basic_string_view@DU?$char_traits@D@std@@@std@@@Z
	?lpush@Redis@redis@sw@@QEAA_JAEBV?$basic_string_view@DU?$char_traits@D@std@@@std@@0@Z
	?lpush@RedisCluster@redis@sw@@QEAA_JAEBV?$basic_string_view@DU?$char_traits@D@std@@@std@@0@Z
	?lpush@cmd@redis@sw@@YAXAEAVConnection@23@AEBV?$basic_string_view@DU?$char_traits@D@std@@@std@@1@Z
	?lpushx@Redis@redis@sw@@QEAA_JAEBV?$basic_string_view@DU?$char_traits@D@std@@@std@@0@Z
	?lpushx@RedisCluster@redis@sw@@QEAA_JAEBV?$basic_string_view@DU?$char_traits@D@std@@@std@@0@Z
	?lpushx@cmd@redis@sw@@YAXAEAVConnection@23@AEBV?$basic_string_view@DU?$char_traits@D@std@@@std@@1@Z
	?lrem@Redis@redis@sw@@QEAA_JAEBV?$basic_string_view@DU?$char_traits@D@std@@@std@@_J0@Z
	?lrem@RedisCluster@redis@sw@@QEAA_JAEBV?$basic_string_view@DU?$char_traits@D@std@@@std@@_J0@Z
	?lrem@cmd@redis@sw@@YAXAEAVConnection@23@AEBV?$basic_string_view@DU?$char_traits@D@std@@@std@@_J1@Z
	?lset@Redis@redis@sw@@QEAAXAEBV?$basic_string_view@DU?$char_traits@D@std@@@std@@_J0@Z
	?lset@RedisCluster@redis@sw@@QEAAXAEBV?$basic_string_view@DU?$char_traits@D@std@@@std@@_J0@Z
	?lset@cmd@redis@sw@@YAXAEAVConnection@23@AEBV?$basic_string_view@DU?$char_traits@D@std@@@std@@_J1@Z
	?ltrim@Redis@redis@sw@@QEAAXAEBV?$basic_string_view@DU?$char_traits@D@std@@@std@@_J1@Z
	?ltrim@RedisCluster@redis@sw@@QEAAXAEBV?$basic_string_view@DU?$char_traits@D@std@@@std@@_J1@Z
	?ltrim@cmd@redis@sw@@YAXAEAVConnection@23@AEBV?$basic_string_view@DU?$char_traits@D@std@@@std@@_J2@Z
	?make_error_code@std@@YA?AVerror_code@1@W4errc@1@@Z
	?master@Sentinel@redis@sw@@AEAA?AVConnection@23@AEBV?$basic_string@DU?$char_traits@D@std@@V?$allocator@D@2@@std@@AEBUConnectionOptions@23@@Z
	?message@_Generic_error_category@std@@UEBA?AV?$basic_string@DU?$char_traits@D@std@@V?$allocator@D@2@@2@H@Z
	?move@Redis@redis@sw@@QEAA_NAEBV?$basic_string_view@DU?$char_traits@D@std@@@std@@_J@Z
	?move@cmd@redis@sw@@YAXAEAVConnection@23@AEBV?$basic_string_view@DU?$char_traits@D@std@@@std@@_J@Z
	?name@_Generic_error_category@std@@UEBAPEBDXZ
	?next@Iterator@Sentinel@redis@sw@@QEAAAEAVConnection@34@XZ
	?now@steady_clock@chrono@std@@SA?AV?$time_point@Usteady_clock@chrono@std@@V?$duration@_JU?$ratio@$00$0DLJKMKAA@@std@@@23@@23@XZ
	?parse@reply@redis@sw@@YA?AV?$basic_string@DU?$char_traits@D@std@@V?$allocator@D@2@@std@@U?$ParseTag@V?$basic_string@DU?$char_traits@D@std@@V?$allocator@D@2@@std@@@123@AEAUredisReply@@@Z
	?parse@reply@redis@sw@@YANU?$ParseTag@N@123@AEAUredisReply@@@Z
	?parse@reply@redis@sw@@YAXU?$ParseTag@X@123@AEAUredisReply@@@Z
	?parse@reply@redis@sw@@YA_JU?$ParseTag@_J@123@AEAUredisReply@@@Z
	?parse@reply@redis@sw@@YA_NU?$ParseTag@_N@123@AEAUredisReply@@@Z
	?parse_set_reply@reply@redis@sw@@YA_NAEAUredisReply@@@Z
	?persist@Redis@redis@sw@@QEAA_NAEBV?$basic_string_view@DU?$char_traits@D@std@@@std@@@Z
	?persist@RedisCluster@redis@sw@@QEAA_NAEBV?$basic_string_view@DU?$char_traits@D@std@@@std@@@Z
	?persist@cmd@redis@sw@@YAXAEAVConnection@23@AEBV?$basic_string_view@DU?$char_traits@D@std@@@std@@@Z
	?pexpire@Redis@redis@sw@@QEAA_NAEBV?$basic_string_view@DU?$char_traits@D@std@@@std@@_J@Z
	?pexpire@RedisCluster@redis@sw@@QEAA_NAEBV?$basic_string_view@DU?$char_traits@D@std@@@std@@_J@Z
	?pexpire@cmd@redis@sw@@YAXAEAVConnection@23@AEBV?$basic_string_view@DU?$char_traits@D@std@@@std@@_J@Z
	?pexpireat@Redis@redis@sw@@QEAA_NAEBV?$basic_string_view@DU?$char_traits@D@std@@@std@@_J@Z
	?pexpireat@RedisCluster@redis@sw@@QEAA_NAEBV?$basic_string_view@DU?$char_traits@D@std@@@std@@_J@Z
	?pexpireat@cmd@redis@sw@@YAXAEAVConnection@23@AEBV?$basic_string_view@DU?$char_traits@D@std@@@std@@_J@Z
	?pfadd@Redis@redis@sw@@QEAA_NAEBV?$basic_string_view@DU?$char_traits@D@std@@@std@@0@Z
	?pfadd@RedisCluster@redis@sw@@QEAA_NAEBV?$basic_string_view@DU?$char_traits@D@std@@@std@@0@Z
	?pfadd@cmd@redis@sw@@YAXAEAVConnection@23@AEBV?$basic_string_view@DU?$char_traits@D@std@@@std@@1@Z
	?pfcount@Redis@redis@sw@@QEAA_JAEBV?$basic_string_view@DU?$char_traits@D@std@@@std@@@Z
	?pfcount@RedisCluster@redis@sw@@QEAA_JAEBV?$basic_string_view@DU?$char_traits@D@std@@@std@@@Z
	?pfcount@cmd@redis@sw@@YAXAEAVConnection@23@AEBV?$basic_string_view@DU?$char_traits@D@std@@@std@@@Z
	?pfmerge@Redis@redis@sw@@QEAAXAEBV?$basic_string_view@DU?$char_traits@D@std@@@std@@0@Z
	?pfmerge@RedisCluster@redis@sw@@QEAAXAEBV?$basic_string_view@DU?$char_traits@D@std@@@std@@0@Z
	?pfmerge@cmd@redis@sw@@YAXAEAVConnection@23@AEBV?$basic_string_view@DU?$char_traits@D@std@@@std@@1@Z
	?ping@Redis@redis@sw@@QEAA?AV?$basic_string@DU?$char_traits@D@std@@V?$allocator@D@2@@std@@AEBV?$basic_string_view@DU?$char_traits@D@std@@@5@@Z
	?ping@Redis@redis@sw@@QEAA?AV?$basic_string@DU?$char_traits@D@std@@V?$allocator@D@2@@std@@XZ
	?ping@cmd@redis@sw@@YAXAEAVConnection@23@@Z
	?ping@cmd@redis@sw@@YAXAEAVConnection@23@AEBV?$basic_string_view@DU?$char_traits@D@std@@@std@@@Z
	?pipeline@Redis@redis@sw@@QEAA?AV?$QueuedRedis@VPipelineImpl@redis@sw@@@23@_N@Z
	?pipeline@RedisCluster@redis@sw@@QEAA?AV?$QueuedRedis@VPipelineImpl@redis@sw@@@23@AEBV?$basic_string_view@DU?$char_traits@D@std@@@std@@_N@Z
	?pools@ShardsPool@redis@sw@@QEAA?AV?$vector@V?$shared_ptr@VConnectionPool@redis@sw@@@std@@V?$allocator@V?$shared_ptr@VConnectionPool@redis@sw@@@std@@@2@@std@@XZ
	?psetex@Redis@redis@sw@@QEAAXAEBV?$basic_string_view@DU?$char_traits@D@std@@@std@@_J0@Z
	?psetex@RedisCluster@redis@sw@@QEAAXAEBV?$basic_string_view@DU?$char_traits@D@std@@@std@@_J0@Z
	?psetex@cmd@redis@sw@@YAXAEAVConnection@23@AEBV?$basic_string_view@DU?$char_traits@D@std@@@std@@_J1@Z
	?psubscribe@Subscriber@redis@sw@@QEAAXAEBV?$basic_string_view@DU?$char_traits@D@std@@@std@@@Z
	?pttl@Redis@redis@sw@@QEAA_JAEBV?$basic_string_view@DU?$char_traits@D@std@@@std@@@Z
	?pttl@RedisCluster@redis@sw@@QEAA_JAEBV?$basic_string_view@DU?$char_traits@D@std@@@std@@@Z
	?pttl@cmd@redis@sw@@YAXAEAVConnection@23@AEBV?$basic_string_view@DU?$char_traits@D@std@@@std@@@Z
	?publish@Redis@redis@sw@@QEAA_JAEBV?$basic_string_view@DU?$char_traits@D@std@@@std@@0@Z
	?publish@RedisCluster@redis@sw@@QEAA_JAEBV?$basic_string_view@DU?$char_traits@D@std@@@std@@0@Z
	?publish@cmd@redis@sw@@YAXAEAVConnection@23@AEBV?$basic_string_view@DU?$char_traits@D@std@@@std@@1@Z
	?punsubscribe@Subscriber@redis@sw@@QEAAXAEBV?$basic_string_view@DU?$char_traits@D@std@@@std@@@Z
	?punsubscribe@Subscriber@redis@sw@@QEAAXXZ
	?push@?$priority_queue@VTask@LockWatcher@redis@sw@@V?$vector@VTask@LockWatcher@redis@sw@@V?$allocator@VTask@LockWatcher@redis@sw@@@std@@@std@@U?$less@VTask@LockWatcher@redis@sw@@@6@@std@@QEAAX$$QEAVTask@LockWatcher@redis@sw@@@Z
	?push_back@?$vector@V?$basic_string@DU?$char_traits@D@std@@V?$allocator@D@2@@std@@V?$allocator@V?$basic_string@DU?$char_traits@D@std@@V?$allocator@D@2@@std@@@2@@std@@QEAAX$$QEAV?$basic_string@DU?$char_traits@D@std@@V?$allocator@D@2@@2@@Z
	?randomkey@Redis@redis@sw@@QEAA?AV?$optional@V?$basic_string@DU?$char_traits@D@std@@V?$allocator@D@2@@std@@@std@@XZ
	?randomkey@cmd@redis@sw@@YAXAEAVConnection@23@@Z
	?reconnect@Connection@redis@sw@@QEAAXXZ
	?recv@Connection@redis@sw@@QEAA?AV?$unique_ptr@UredisReply@@UReplyDeleter@redis@sw@@@std@@_N@Z
	?redis@?$QueuedRedis@VTransactionImpl@redis@sw@@@0sw@@QEAA?AVRedis@02@XZ
	?redis@RedisCluster@0sw@@QEAA?AVRedis@02@AEBV?$basic_string_view@DU?$char_traits@D@std@@@std@@_N@Z
	?release@ConnectionPool@redis@sw@@QEAAXVConnection@23@@Z
	?rename@Redis@redis@sw@@QEAAXAEBV?$basic_string_view@DU?$char_traits@D@std@@@std@@0@Z
	?rename@RedisCluster@redis@sw@@QEAAXAEBV?$basic_string_view@DU?$char_traits@D@std@@@std@@0@Z
	?rename@cmd@redis@sw@@YAXAEAVConnection@23@AEBV?$basic_string_view@DU?$char_traits@D@std@@@std@@1@Z
	?renamenx@Redis@redis@sw@@QEAA_NAEBV?$basic_string_view@DU?$char_traits@D@std@@@std@@0@Z
	?renamenx@RedisCluster@redis@sw@@QEAA_NAEBV?$basic_string_view@DU?$char_traits@D@std@@@std@@0@Z
	?renamenx@cmd@redis@sw@@YAXAEAVConnection@23@AEBV?$basic_string_view@DU?$char_traits@D@std@@@std@@1@Z
	?reset@Connection@redis@sw@@QEAAXXZ
	?reset@Iterator@Sentinel@redis@sw@@QEAAXXZ
	?restore@Redis@redis@sw@@QEAAXAEBV?$basic_string_view@DU?$char_traits@D@std@@@std@@0_J_N@Z
	?restore@RedisCluster@redis@sw@@QEAAXAEBV?$basic_string_view@DU?$char_traits@D@std@@@std@@0_J_N@Z
	?restore@cmd@redis@sw@@YAXAEAVConnection@23@AEBV?$basic_string_view@DU?$char_traits@D@std@@@std@@1_J_N@Z
	?rewrite_empty_array_reply@reply@redis@sw@@YAXAEAUredisReply@@@Z
	?rpop@Redis@redis@sw@@QEAA?AV?$optional@V?$basic_string@DU?$char_traits@D@std@@V?$allocator@D@2@@std@@@std@@AEBV?$basic_string_view@DU?$char_traits@D@std@@@5@@Z
	?rpop@RedisCluster@redis@sw@@QEAA?AV?$optional@V?$basic_string@DU?$char_traits@D@std@@V?$allocator@D@2@@std@@@std@@AEBV?$basic_string_view@DU?$char_traits@D@std@@@5@@Z
	?rpop@cmd@redis@sw@@YAXAEAVConnection@23@AEBV?$basic_string_view@DU?$char_traits@D@std@@@std@@@Z
	?rpoplpush@Redis@redis@sw@@QEAA?AV?$optional@V?$basic_string@DU?$char_traits@D@std@@V?$allocator@D@2@@std@@@std@@AEBV?$basic_string_view@DU?$char_traits@D@std@@@5@0@Z
	?rpoplpush@RedisCluster@redis@sw@@QEAA?AV?$optional@V?$basic_string@DU?$char_traits@D@std@@V?$allocator@D@2@@std@@@std@@AEBV?$basic_string_view@DU?$char_traits@D@std@@@5@0@Z
	?rpoplpush@cmd@redis@sw@@YAXAEAVConnection@23@AEBV?$basic_string_view@DU?$char_traits@D@std@@@std@@1@Z
	?rpush@Redis@redis@sw@@QEAA_JAEBV?$basic_string_view@DU?$char_traits@D@std@@@std@@0@Z
	?rpush@RedisCluster@redis@sw@@QEAA_JAEBV?$basic_string_view@DU?$char_traits@D@std@@@std@@0@Z
	?rpush@cmd@redis@sw@@YAXAEAVConnection@23@AEBV?$basic_string_view@DU?$char_traits@D@std@@@std@@1@Z
	?rpushx@Redis@redis@sw@@QEAA_JAEBV?$basic_string_view@DU?$char_traits@D@std@@@std@@0@Z
	?rpushx@RedisCluster@redis@sw@@QEAA_JAEBV?$basic_string_view@DU?$char_traits@D@std@@@std@@0@Z
	?rpushx@cmd@redis@sw@@YAXAEAVConnection@23@AEBV?$basic_string_view@DU?$char_traits@D@std@@@std@@1@Z
	?run@Task@LockWatcher@redis@sw@@QEAA_NXZ
	?sadd@Redis@redis@sw@@QEAA_JAEBV?$basic_string_view@DU?$char_traits@D@std@@@std@@0@Z
	?sadd@RedisCluster@redis@sw@@QEAA_JAEBV?$basic_string_view@DU?$char_traits@D@std@@@std@@0@Z
	?sadd@cmd@redis@sw@@YAXAEAVConnection@23@AEBV?$basic_string_view@DU?$char_traits@D@std@@@std@@1@Z
	?save@Redis@redis@sw@@QEAAXXZ
	?save@cmd@redis@sw@@YAXAEAVConnection@23@@Z
	?scard@Redis@redis@sw@@QEAA_JAEBV?$basic_string_view@DU?$char_traits@D@std@@@std@@@Z
	?scard@RedisCluster@redis@sw@@QEAA_JAEBV?$basic_string_view@DU?$char_traits@D@std@@@std@@@Z
	?scard@cmd@redis@sw@@YAXAEAVConnection@23@AEBV?$basic_string_view@DU?$char_traits@D@std@@@std@@@Z
	?scheduled_time@Task@LockWatcher@redis@sw@@QEBA?AV?$duration@_JU?$ratio@$00$0DOI@@std@@@chrono@std@@XZ
	?script_exists@Redis@redis@sw@@QEAA_NAEBV?$basic_string_view@DU?$char_traits@D@std@@@std@@@Z
	?script_exists@cmd@redis@sw@@YAXAEAVConnection@23@AEBV?$basic_string_view@DU?$char_traits@D@std@@@std@@@Z
	?script_flush@Redis@redis@sw@@QEAAXXZ
	?script_flush@cmd@redis@sw@@YAXAEAVConnection@23@@Z
	?script_kill@Redis@redis@sw@@QEAAXXZ
	?script_kill@cmd@redis@sw@@YAXAEAVConnection@23@@Z
	?script_load@Redis@redis@sw@@QEAA?AV?$basic_string@DU?$char_traits@D@std@@V?$allocator@D@2@@std@@AEBV?$basic_string_view@DU?$char_traits@D@std@@@5@@Z
	?script_load@cmd@redis@sw@@YAXAEAVConnection@23@AEBV?$basic_string_view@DU?$char_traits@D@std@@@std@@@Z
	?sdiffstore@Redis@redis@sw@@QEAA_JAEBV?$basic_string_view@DU?$char_traits@D@std@@@std@@0@Z
	?sdiffstore@RedisCluster@redis@sw@@QEAA_JAEBV?$basic_string_view@DU?$char_traits@D@std@@@std@@0@Z
	?sdiffstore@cmd@redis@sw@@YAXAEAVConnection@23@AEBV?$basic_string_view@DU?$char_traits@D@std@@@std@@1@Z
	?secure_connection@tls@redis@sw@@YA?AV?$unique_ptr@UredisSSLContext@@UTlsContextDeleter@tls@redis@sw@@@std@@AEAUredisContext@@AEBUTlsOptions@123@@Z
	?send@Connection@redis@sw@@QEAAXAEAVCmdArgs@23@@Z
	?send@Connection@redis@sw@@QEAAXHPEAPEBDPEB_K@Z
	?set@Redis@redis@sw@@QEAA_NAEBV?$basic_string_view@DU?$char_traits@D@std@@@std@@0AEBV?$duration@_JU?$ratio@$00$0DOI@@std@@@chrono@5@W4UpdateType@23@@Z
	?set@Redis@redis@sw@@QEAA_NAEBV?$basic_string_view@DU?$char_traits@D@std@@@std@@0_NW4UpdateType@23@@Z
	?set@RedisCluster@redis@sw@@QEAA_NAEBV?$basic_string_view@DU?$char_traits@D@std@@@std@@0AEBV?$duration@_JU?$ratio@$00$0DOI@@std@@@chrono@5@W4UpdateType@23@@Z
	?set@RedisCluster@redis@sw@@QEAA_NAEBV?$basic_string_view@DU?$char_traits@D@std@@@std@@0_NW4UpdateType@23@@Z
	?set@cmd@redis@sw@@YAXAEAVConnection@23@AEBV?$basic_string_view@DU?$char_traits@D@std@@@std@@1_JW4UpdateType@23@@Z
	?set_aggregation_type@detail@cmd@redis@sw@@YAXAEAVCmdArgs@34@W4Aggregation@34@@Z
	?set_bitop@detail@cmd@redis@sw@@YAXAEAVCmdArgs@34@W4BitOp@34@@Z
	?set_geo_unit@detail@cmd@redis@sw@@YAXAEAVCmdArgs@34@W4GeoUnit@34@@Z
	?set_georadius_parameters@detail@cmd@redis@sw@@YAXAEAVCmdArgs@34@NW4GeoUnit@34@_J_N333@Z
	?set_georadius_store_parameters@detail@cmd@redis@sw@@YAXAEAVCmdArgs@34@NW4GeoUnit@34@AEBV?$basic_string_view@DU?$char_traits@D@std@@@std@@_N_J@Z
	?set_keepttl@cmd@redis@sw@@YAXAEAVConnection@23@AEBV?$basic_string_view@DU?$char_traits@D@std@@@std@@1_NW4UpdateType@23@@Z
	?set_push_callback@Connection@redis@sw@@QEAAXP6AXPEAX0@Z@Z
	?set_update_type@detail@cmd@redis@sw@@YAXAEAVCmdArgs@34@W4UpdateType@34@@Z
	?set_xtrim_parameters@detail@cmd@redis@sw@@YAXAEAVCmdArgs@34@W4XtrimStrategy@34@_NAEBV?$basic_string_view@DU?$char_traits@D@std@@@std@@@Z
	?set_xtrim_parameters@detail@cmd@redis@sw@@YAXAEAVCmdArgs@34@W4XtrimStrategy@34@_NAEBV?$basic_string_view@DU?$char_traits@D@std@@@std@@_J@Z
	?setex@Redis@redis@sw@@QEAAXAEBV?$basic_string_view@DU?$char_traits@D@std@@@std@@_J0@Z
	?setex@RedisCluster@redis@sw@@QEAAXAEBV?$basic_string_view@DU?$char_traits@D@std@@@std@@_J0@Z
	?setex@cmd@redis@sw@@YAXAEAVConnection@23@AEBV?$basic_string_view@DU?$char_traits@D@std@@@std@@_J1@Z
	?setnx@Redis@redis@sw@@QEAA_NAEBV?$basic_string_view@DU?$char_traits@D@std@@@std@@0@Z
	?setnx@RedisCluster@redis@sw@@QEAA_NAEBV?$basic_string_view@DU?$char_traits@D@std@@@std@@0@Z
	?setnx@cmd@redis@sw@@YAXAEAVConnection@23@AEBV?$basic_string_view@DU?$char_traits@D@std@@@std@@1@Z
	?setrange@Redis@redis@sw@@QEAA_JAEBV?$basic_string_view@DU?$char_traits@D@std@@@std@@_J0@Z
	?setrange@RedisCluster@redis@sw@@QEAA_JAEBV?$basic_string_view@DU?$char_traits@D@std@@@std@@_J0@Z
	?setrange@cmd@redis@sw@@YAXAEAVConnection@23@AEBV?$basic_string_view@DU?$char_traits@D@std@@@std@@_J1@Z
	?shards@ShardsPool@redis@sw@@QEAA?AV?$map@USlotRange@redis@sw@@UNode@23@U?$less@USlotRange@redis@sw@@@std@@V?$allocator@U?$pair@$$CBUSlotRange@redis@sw@@UNode@23@@std@@@6@@std@@XZ
	?sinterstore@Redis@redis@sw@@QEAA_JAEBV?$basic_string_view@DU?$char_traits@D@std@@@std@@0@Z
	?sinterstore@RedisCluster@redis@sw@@QEAA_JAEBV?$basic_string_view@DU?$char_traits@D@std@@@std@@0@Z
	?sinterstore@cmd@redis@sw@@YAXAEAVConnection@23@AEBV?$basic_string_view@DU?$char_traits@D@std@@@std@@1@Z
	?sismember@Redis@redis@sw@@QEAA_NAEBV?$basic_string_view@DU?$char_traits@D@std@@@std@@0@Z
	?sismember@RedisCluster@redis@sw@@QEAA_NAEBV?$basic_string_view@DU?$char_traits@D@std@@@std@@0@Z
	?sismember@cmd@redis@sw@@YAXAEAVConnection@23@AEBV?$basic_string_view@DU?$char_traits@D@std@@@std@@1@Z
	?size@?$basic_string_view@DU?$char_traits@D@std@@@std@@QEBA_KXZ
	?slave@Sentinel@redis@sw@@AEAA?AVConnection@23@AEBV?$basic_string@DU?$char_traits@D@std@@V?$allocator@D@2@@std@@AEBUConnectionOptions@23@@Z
	?smove@Redis@redis@sw@@QEAA_NAEBV?$basic_string_view@DU?$char_traits@D@std@@@std@@00@Z
	?smove@RedisCluster@redis@sw@@QEAA_NAEBV?$basic_string_view@DU?$char_traits@D@std@@@std@@00@Z
	?smove@cmd@redis@sw@@YAXAEAVConnection@23@AEBV?$basic_string_view@DU?$char_traits@D@std@@@std@@11@Z
	?splice@?$list@UConnectionOptions@redis@sw@@V?$allocator@UConnectionOptions@redis@sw@@@std@@@std@@QEAAXV?$_List_const_iterator@V?$_List_val@U?$_List_simple_types@UConnectionOptions@redis@sw@@@std@@@std@@@2@AEAV12@0@Z
	?spop@Redis@redis@sw@@QEAA?AV?$optional@V?$basic_string@DU?$char_traits@D@std@@V?$allocator@D@2@@std@@@std@@AEBV?$basic_string_view@DU?$char_traits@D@std@@@5@@Z
	?spop@RedisCluster@redis@sw@@QEAA?AV?$optional@V?$basic_string@DU?$char_traits@D@std@@V?$allocator@D@2@@std@@@std@@AEBV?$basic_string_view@DU?$char_traits@D@std@@@5@@Z
	?spop@cmd@redis@sw@@YAXAEAVConnection@23@AEBV?$basic_string_view@DU?$char_traits@D@std@@@std@@@Z
	?spublish@Redis@redis@sw@@QEAA_JAEBV?$basic_string_view@DU?$char_traits@D@std@@@std@@0@Z
	?spublish@RedisCluster@redis@sw@@QEAA_JAEBV?$basic_string_view@DU?$char_traits@D@std@@@std@@0@Z
	?spublish@cmd@redis@sw@@YAXAEAVConnection@23@AEBV?$basic_string_view@DU?$char_traits@D@std@@@std@@1@Z
	?srandmember@Redis@redis@sw@@QEAA?AV?$optional@V?$basic_string@DU?$char_traits@D@std@@V?$allocator@D@2@@std@@@std@@AEBV?$basic_string_view@DU?$char_traits@D@std@@@5@@Z
	?srandmember@RedisCluster@redis@sw@@QEAA?AV?$optional@V?$basic_string@DU?$char_traits@D@std@@V?$allocator@D@2@@std@@@std@@AEBV?$basic_string_view@DU?$char_traits@D@std@@@5@@Z
	?srandmember@cmd@redis@sw@@YAXAEAVConnection@23@AEBV?$basic_string_view@DU?$char_traits@D@std@@@std@@@Z
	?srem@Redis@redis@sw@@QEAA_JAEBV?$basic_string_view@DU?$char_traits@D@std@@@std@@0@Z
	?srem@RedisCluster@redis@sw@@QEAA_JAEBV?$basic_string_view@DU?$char_traits@D@std@@@std@@0@Z
	?srem@cmd@redis@sw@@YAXAEAVConnection@23@AEBV?$basic_string_view@DU?$char_traits@D@std@@@std@@1@Z
	?ssubscribe@Subscriber@redis@sw@@QEAAXAEBV?$basic_string_view@DU?$char_traits@D@std@@@std@@@Z
	?strlen@Redis@redis@sw@@QEAA_JAEBV?$basic_string_view@DU?$char_traits@D@std@@@std@@@Z
	?strlen@RedisCluster@redis@sw@@QEAA_JAEBV?$basic_string_view@DU?$char_traits@D@std@@@std@@@Z
	?strlen@cmd@redis@sw@@YAXAEAVConnection@23@AEBV?$basic_string_view@DU?$char_traits@D@std@@@std@@@Z
	?subscribe@Subscriber@redis@sw@@QEAAXAEBV?$basic_string_view@DU?$char_traits@D@std@@@std@@@Z
	?subscriber@Redis@redis@sw@@QEAA?AVSubscriber@23@XZ
	?subscriber@RedisCluster@redis@sw@@QEAA?AVSubscriber@23@AEBV?$basic_string_view@DU?$char_traits@D@std@@@std@@@Z
	?subscriber@RedisCluster@redis@sw@@QEAA?AVSubscriber@23@XZ
	?sunionstore@Redis@redis@sw@@QEAA_JAEBV?$basic_string_view@DU?$char_traits@D@std@@@std@@0@Z
	?sunionstore@RedisCluster@redis@sw@@QEAA_JAEBV?$basic_string_view@DU?$char_traits@D@std@@@std@@0@Z
	?sunionstore@cmd@redis@sw@@YAXAEAVConnection@23@AEBV?$basic_string_view@DU?$char_traits@D@std@@@std@@1@Z
	?swap@redis@sw@@YAXAEAVConnection@12@0@Z
	?swapdb@Redis@redis@sw@@QEAAX_J0@Z
	?swapdb@cmd@redis@sw@@YAXAEAVConnection@23@_J1@Z
	?throw_error@redis@sw@@YAXAEBUredisContext@@AEBV?$basic_string@DU?$char_traits@D@std@@V?$allocator@D@2@@std@@@Z
	?throw_error@redis@sw@@YAXAEBUredisReply@@@Z
	?to_status@reply@redis@sw@@YA?AV?$basic_string@DU?$char_traits@D@std@@V?$allocator@D@2@@std@@AEAUredisReply@@@Z
	?to_string@std@@YA?AV?$basic_string@DU?$char_traits@D@std@@V?$allocator@D@2@@1@H@Z
	?to_string@std@@YA?AV?$basic_string@DU?$char_traits@D@std@@V?$allocator@D@2@@1@N@Z
	?to_string@std@@YA?AV?$basic_string@DU?$char_traits@D@std@@V?$allocator@D@2@@1@_J@Z
	?to_string@std@@YA?AV?$basic_string@DU?$char_traits@D@std@@V?$allocator@D@2@@1@_K@Z
	?touch@Redis@redis@sw@@QEAA_JAEBV?$basic_string_view@DU?$char_traits@D@std@@@std@@@Z
	?touch@RedisCluster@redis@sw@@QEAA_JAEBV?$basic_string_view@DU?$char_traits@D@std@@@std@@@Z
	?touch@cmd@redis@sw@@YAXAEAVConnection@23@AEBV?$basic_string_view@DU?$char_traits@D@std@@@std@@@Z
	?transaction@Redis@redis@sw@@QEAA?AV?$QueuedRedis@VTransactionImpl@redis@sw@@@23@_N0@Z
	?transaction@RedisCluster@redis@sw@@QEAA?AV?$QueuedRedis@VTransactionImpl@redis@sw@@@23@AEBV?$basic_string_view@DU?$char_traits@D@std@@@std@@_N1@Z
	?try_lock@RedMutexImpl@redis@sw@@QEAA_NXZ
	?try_lock@RedMutexTx@redis@sw@@QEAA?AV?$duration@_JU?$ratio@$00$0DOI@@std@@@chrono@std@@AEBV?$basic_string@DU?$char_traits@D@std@@V?$allocator@D@2@@6@AEBV456@@Z
	?try_lock@RedMutexTx@redis@sw@@QEAA?AV?$duration@_JU?$ratio@$00$0DOI@@std@@@chrono@std@@AEBV?$basic_string@DU?$char_traits@D@std@@V?$allocator@D@2@@6@AEBV?$time_point@Usystem_clock@chrono@std@@V?$duration@_JU?$ratio@$00$0JIJGIA@@std@@@23@@56@@Z
	?ttl@RedLockUtils@redis@sw@@SA?AV?$duration@_JU?$ratio@$00$0DOI@@std@@@chrono@std@@AEBV?$time_point@Usystem_clock@chrono@std@@V?$duration@_JU?$ratio@$00$0JIJGIA@@std@@@23@@56@@Z
	?ttl@Redis@redis@sw@@QEAA_JAEBV?$basic_string_view@DU?$char_traits@D@std@@@std@@@Z
	?ttl@RedisCluster@redis@sw@@QEAA_JAEBV?$basic_string_view@DU?$char_traits@D@std@@@std@@@Z
	?ttl@cmd@redis@sw@@YAXAEAVConnection@23@AEBV?$basic_string_view@DU?$char_traits@D@std@@@std@@@Z
	?type@Redis@redis@sw@@QEAA?AV?$basic_string@DU?$char_traits@D@std@@V?$allocator@D@2@@std@@AEBV?$basic_string_view@DU?$char_traits@D@std@@@5@@Z
	?type@RedisCluster@redis@sw@@QEAA?AV?$basic_string@DU?$char_traits@D@std@@V?$allocator@D@2@@std@@AEBV?$basic_string_view@DU?$char_traits@D@std@@@5@@Z
	?type@cmd@redis@sw@@YAXAEAVConnection@23@AEBV?$basic_string_view@DU?$char_traits@D@std@@@std@@@Z
	?type_to_string@reply@redis@sw@@YA?AV?$basic_string@DU?$char_traits@D@std@@V?$allocator@D@2@@std@@H@Z
	?unlink@Redis@redis@sw@@QEAA_JAEBV?$basic_string_view@DU?$char_traits@D@std@@@std@@@Z
	?unlink@RedisCluster@redis@sw@@QEAA_JAEBV?$basic_string_view@DU?$char_traits@D@std@@@std@@@Z
	?unlink@cmd@redis@sw@@YAXAEAVConnection@23@AEBV?$basic_string_view@DU?$char_traits@D@std@@@std@@@Z
	?unlock@RedLockMutexVessel@redis@sw@@QEAAXAEBULockInfo@123@@Z
	?unlock@RedMutexImpl@redis@sw@@QEAAXXZ
	?unlock@RedMutexTx@redis@sw@@QEAAXAEBV?$basic_string@DU?$char_traits@D@std@@V?$allocator@D@2@@std@@@Z
	?unlock@_Mutex_base@std@@QEAAXXZ
	?unsubscribe@Subscriber@redis@sw@@QEAAXAEBV?$basic_string_view@DU?$char_traits@D@std@@@std@@@Z
	?unsubscribe@Subscriber@redis@sw@@QEAAXXZ
	?unwatch@Redis@redis@sw@@QEAAXXZ
	?unwatch@cmd@redis@sw@@YAXAEAVConnection@23@@Z
	?update@ShardsPool@redis@sw@@QEAAXXZ
	?upper@?$LeftBoundedInterval@N@redis@sw@@QEBAAEBV?$basic_string@DU?$char_traits@D@std@@V?$allocator@D@2@@std@@XZ
	?upper@?$LeftBoundedInterval@V?$basic_string@DU?$char_traits@D@std@@V?$allocator@D@2@@std@@@redis@sw@@QEBAAEBV?$basic_string@DU?$char_traits@D@std@@V?$allocator@D@2@@std@@XZ
	?upper@?$UnboundedInterval@N@redis@sw@@QEBAAEBV?$basic_string@DU?$char_traits@D@std@@V?$allocator@D@2@@std@@XZ
	?upper@?$UnboundedInterval@V?$basic_string@DU?$char_traits@D@std@@V?$allocator@D@2@@std@@@redis@sw@@QEBAAEBV?$basic_string@DU?$char_traits@D@std@@V?$allocator@D@2@@std@@XZ
	?wait@Redis@redis@sw@@QEAA_J_J0@Z
	?wait@cmd@redis@sw@@YAXAEAVConnection@23@_J1@Z
	?watch@LockWatcher@redis@sw@@AEAAXAEBV?$shared_ptr@VRedMutexImpl@redis@sw@@@std@@@Z
	?watch@Redis@redis@sw@@QEAAXAEBV?$basic_string_view@DU?$char_traits@D@std@@@std@@@Z
	?watch@cmd@redis@sw@@YAXAEAVConnection@23@AEBV?$basic_string_view@DU?$char_traits@D@std@@@std@@@Z
	?what@Error@redis@sw@@UEBAPEBDXZ
	?what@bad_weak_ptr@std@@UEBAPEBDXZ
	?what@exception@std@@UEBAPEBDXZ
	?xack@Redis@redis@sw@@QEAA_JAEBV?$basic_string_view@DU?$char_traits@D@std@@@std@@00@Z
	?xack@RedisCluster@redis@sw@@QEAA_JAEBV?$basic_string_view@DU?$char_traits@D@std@@@std@@00@Z
	?xack@cmd@redis@sw@@YAXAEAVConnection@23@AEBV?$basic_string_view@DU?$char_traits@D@std@@@std@@11@Z
	?xdel@Redis@redis@sw@@QEAA_JAEBV?$basic_string_view@DU?$char_traits@D@std@@@std@@0@Z
	?xdel@RedisCluster@redis@sw@@QEAA_JAEBV?$basic_string_view@DU?$char_traits@D@std@@@std@@0@Z
	?xdel@cmd@redis@sw@@YAXAEAVConnection@23@AEBV?$basic_string_view@DU?$char_traits@D@std@@@std@@1@Z
	?xgroup_create@Redis@redis@sw@@QEAAXAEBV?$basic_string_view@DU?$char_traits@D@std@@@std@@00_N@Z
	?xgroup_create@RedisCluster@redis@sw@@QEAAXAEBV?$basic_string_view@DU?$char_traits@D@std@@@std@@00_N@Z
	?xgroup_create@cmd@redis@sw@@YAXAEAVConnection@23@AEBV?$basic_string_view@DU?$char_traits@D@std@@@std@@11_N@Z
	?xgroup_delconsumer@Redis@redis@sw@@QEAA_JAEBV?$basic_string_view@DU?$char_traits@D@std@@@std@@00@Z
	?xgroup_delconsumer@RedisCluster@redis@sw@@QEAA_JAEBV?$basic_string_view@DU?$char_traits@D@std@@@std@@00@Z
	?xgroup_delconsumer@cmd@redis@sw@@YAXAEAVConnection@23@AEBV?$basic_string_view@DU?$char_traits@D@std@@@std@@11@Z
	?xgroup_destroy@Redis@redis@sw@@QEAA_JAEBV?$basic_string_view@DU?$char_traits@D@std@@@std@@0@Z
	?xgroup_destroy@RedisCluster@redis@sw@@QEAA_JAEBV?$basic_string_view@DU?$char_traits@D@std@@@std@@0@Z
	?xgroup_destroy@cmd@redis@sw@@YAXAEAVConnection@23@AEBV?$basic_string_view@DU?$char_traits@D@std@@@std@@1@Z
	?xgroup_setid@Redis@redis@sw@@QEAAXAEBV?$basic_string_view@DU?$char_traits@D@std@@@std@@00@Z
	?xgroup_setid@RedisCluster@redis@sw@@QEAAXAEBV?$basic_string_view@DU?$char_traits@D@std@@@std@@00@Z
	?xgroup_setid@cmd@redis@sw@@YAXAEAVConnection@23@AEBV?$basic_string_view@DU?$char_traits@D@std@@@std@@11@Z
	?xlen@Redis@redis@sw@@QEAA_JAEBV?$basic_string_view@DU?$char_traits@D@std@@@std@@@Z
	?xlen@RedisCluster@redis@sw@@QEAA_JAEBV?$basic_string_view@DU?$char_traits@D@std@@@std@@@Z
	?xlen@cmd@redis@sw@@YAXAEAVConnection@23@AEBV?$basic_string_view@DU?$char_traits@D@std@@@std@@@Z
	?xtrim@Redis@redis@sw@@QEAA_JAEBV?$basic_string_view@DU?$char_traits@D@std@@@std@@0W4XtrimStrategy@23@_J@Z
	?xtrim@Redis@redis@sw@@QEAA_JAEBV?$basic_string_view@DU?$char_traits@D@std@@@std@@0_NW4XtrimStrategy@23@@Z
	?xtrim@Redis@redis@sw@@QEAA_JAEBV?$basic_string_view@DU?$char_traits@D@std@@@std@@_JW4XtrimStrategy@23@1@Z
	?xtrim@Redis@redis@sw@@QEAA_JAEBV?$basic_string_view@DU?$char_traits@D@std@@@std@@_J_NW4XtrimStrategy@23@@Z
	?xtrim@RedisCluster@redis@sw@@QEAA_JAEBV?$basic_string_view@DU?$char_traits@D@std@@@std@@0W4XtrimStrategy@23@_J@Z
	?xtrim@RedisCluster@redis@sw@@QEAA_JAEBV?$basic_string_view@DU?$char_traits@D@std@@@std@@0_NW4XtrimStrategy@23@@Z
	?xtrim@RedisCluster@redis@sw@@QEAA_JAEBV?$basic_string_view@DU?$char_traits@D@std@@@std@@_JW4XtrimStrategy@23@1@Z
	?xtrim@RedisCluster@redis@sw@@QEAA_JAEBV?$basic_string_view@DU?$char_traits@D@std@@@std@@_J_NW4XtrimStrategy@23@@Z
	?xtrim@cmd@redis@sw@@YAXAEAVConnection@23@AEBV?$basic_string_view@DU?$char_traits@D@std@@@std@@_J_NW4XtrimStrategy@23@@Z
	?xtrim_limit@cmd@redis@sw@@YAXAEAVConnection@23@AEBV?$basic_string_view@DU?$char_traits@D@std@@@std@@_JW4XtrimStrategy@23@2@Z
	?xtrim_string_threshold@cmd@redis@sw@@YAXAEAVConnection@23@AEBV?$basic_string_view@DU?$char_traits@D@std@@@std@@1_NW4XtrimStrategy@23@@Z
	?xtrim_string_threshold_limit@cmd@redis@sw@@YAXAEAVConnection@23@AEBV?$basic_string_view@DU?$char_traits@D@std@@@std@@1W4XtrimStrategy@23@_J@Z
	?zadd@Redis@redis@sw@@QEAA_JAEBV?$basic_string_view@DU?$char_traits@D@std@@@std@@0NW4UpdateType@23@_N@Z
	?zadd@RedisCluster@redis@sw@@QEAA_JAEBV?$basic_string_view@DU?$char_traits@D@std@@@std@@0NW4UpdateType@23@_N@Z
	?zadd@cmd@redis@sw@@YAXAEAVConnection@23@AEBV?$basic_string_view@DU?$char_traits@D@std@@@std@@1NW4UpdateType@23@_N@Z
	?zcard@Redis@redis@sw@@QEAA_JAEBV?$basic_string_view@DU?$char_traits@D@std@@@std@@@Z
	?zcard@RedisCluster@redis@sw@@QEAA_JAEBV?$basic_string_view@DU?$char_traits@D@std@@@std@@@Z
	?zcard@cmd@redis@sw@@YAXAEAVConnection@23@AEBV?$basic_string_view@DU?$char_traits@D@std@@@std@@@Z
	?zincrby@Redis@redis@sw@@QEAANAEBV?$basic_string_view@DU?$char_traits@D@std@@@std@@N0@Z
	?zincrby@RedisCluster@redis@sw@@QEAANAEBV?$basic_string_view@DU?$char_traits@D@std@@@std@@N0@Z
	?zincrby@cmd@redis@sw@@YAXAEAVConnection@23@AEBV?$basic_string_view@DU?$char_traits@D@std@@@std@@N1@Z
	?zinterstore@Redis@redis@sw@@QEAA_JAEBV?$basic_string_view@DU?$char_traits@D@std@@@std@@0N@Z
	?zinterstore@RedisCluster@redis@sw@@QEAA_JAEBV?$basic_string_view@DU?$char_traits@D@std@@@std@@0N@Z
	?zinterstore@cmd@redis@sw@@YAXAEAVConnection@23@AEBV?$basic_string_view@DU?$char_traits@D@std@@@std@@1N@Z
	?zpopmax@Redis@redis@sw@@QEAA?AV?$optional@U?$pair@V?$basic_string@DU?$char_traits@D@std@@V?$allocator@D@2@@std@@N@std@@@std@@AEBV?$basic_string_view@DU?$char_traits@D@std@@@5@@Z
	?zpopmax@RedisCluster@redis@sw@@QEAA?AV?$optional@U?$pair@V?$basic_string@DU?$char_traits@D@std@@V?$allocator@D@2@@std@@N@std@@@std@@AEBV?$basic_string_view@DU?$char_traits@D@std@@@5@@Z
	?zpopmax@cmd@redis@sw@@YAXAEAVConnection@23@AEBV?$basic_string_view@DU?$char_traits@D@std@@@std@@_J@Z
	?zpopmin@Redis@redis@sw@@QEAA?AV?$optional@U?$pair@V?$basic_string@DU?$char_traits@D@std@@V?$allocator@D@2@@std@@N@std@@@std@@AEBV?$basic_string_view@DU?$char_traits@D@std@@@5@@Z
	?zpopmin@RedisCluster@redis@sw@@QEAA?AV?$optional@U?$pair@V?$basic_string@DU?$char_traits@D@std@@V?$allocator@D@2@@std@@N@std@@@std@@AEBV?$basic_string_view@DU?$char_traits@D@std@@@5@@Z
	?zpopmin@cmd@redis@sw@@YAXAEAVConnection@23@AEBV?$basic_string_view@DU?$char_traits@D@std@@@std@@_J@Z
	?zrank@Redis@redis@sw@@QEAA?AV?$optional@_J@std@@AEBV?$basic_string_view@DU?$char_traits@D@std@@@5@0@Z
	?zrank@RedisCluster@redis@sw@@QEAA?AV?$optional@_J@std@@AEBV?$basic_string_view@DU?$char_traits@D@std@@@5@0@Z
	?zrank@cmd@redis@sw@@YAXAEAVConnection@23@AEBV?$basic_string_view@DU?$char_traits@D@std@@@std@@1@Z
	?zrem@Redis@redis@sw@@QEAA_JAEBV?$basic_string_view@DU?$char_traits@D@std@@@std@@0@Z
	?zrem@RedisCluster@redis@sw@@QEAA_JAEBV?$basic_string_view@DU?$char_traits@D@std@@@std@@0@Z
	?zrem@cmd@redis@sw@@YAXAEAVConnection@23@AEBV?$basic_string_view@DU?$char_traits@D@std@@@std@@1@Z
	?zremrangebyrank@Redis@redis@sw@@QEAA_JAEBV?$basic_string_view@DU?$char_traits@D@std@@@std@@_J1@Z
	?zremrangebyrank@RedisCluster@redis@sw@@QEAA_JAEBV?$basic_string_view@DU?$char_traits@D@std@@@std@@_J1@Z
	?zremrangebyrank@cmd@redis@sw@@YAXAEAVConnection@23@AEBV?$basic_string_view@DU?$char_traits@D@std@@@std@@_J2@Z
	?zrevrank@Redis@redis@sw@@QEAA?AV?$optional@_J@std@@AEBV?$basic_string_view@DU?$char_traits@D@std@@@5@0@Z
	?zrevrank@RedisCluster@redis@sw@@QEAA?AV?$optional@_J@std@@AEBV?$basic_string_view@DU?$char_traits@D@std@@@5@0@Z
	?zrevrank@cmd@redis@sw@@YAXAEAVConnection@23@AEBV?$basic_string_view@DU?$char_traits@D@std@@@std@@1@Z
	?zscore@Redis@redis@sw@@QEAA?AV?$optional@N@std@@AEBV?$basic_string_view@DU?$char_traits@D@std@@@5@0@Z
	?zscore@RedisCluster@redis@sw@@QEAA?AV?$optional@N@std@@AEBV?$basic_string_view@DU?$char_traits@D@std@@@5@0@Z
	?zscore@cmd@redis@sw@@YAXAEAVConnection@23@AEBV?$basic_string_view@DU?$char_traits@D@std@@@std@@1@Z
	?zunionstore@Redis@redis@sw@@QEAA_JAEBV?$basic_string_view@DU?$char_traits@D@std@@@std@@0N@Z
	?zunionstore@RedisCluster@redis@sw@@QEAA_JAEBV?$basic_string_view@DU?$char_traits@D@std@@@std@@0N@Z
	?zunionstore@cmd@redis@sw@@YAXAEAVConnection@23@AEBV?$basic_string_view@DU?$char_traits@D@std@@@std@@1N@Z
	__local_stdio_printf_options
	_scprintf
	sprintf_s
